(dp0
S'METTS MARK'
p1
(dp2
S'salary'
p3
F1.050782137934621
sS'to_messages'
p4
F-0.6438120364776327
sS'fraction_messages_from_poi'
p5
F0.4011708684455076
sS'deferral_payments'
p6
F-0.332792686200731
sS'total_payments'
p7
F-0.104764444483953
sS'bonus'
p8
F0.0003837574199748104
sS'deferred_income'
p9
F0.3199872793614952
sS'fraction_messages_to_poi'
p10
F-0.5820288434961911
sS'total_stock_value'
p11
F-0.3688324675010209
sS'shared_receipt_with_poi'
p12
F-0.45711216466256016
sS'exercised_stock_options'
p13
F-0.425353795189256
sS'from_messages'
p14
F-0.4055533485748294
sS'other'
p15
F-0.25378931866426535
sS'from_this_person_to_poi'
p16
F-0.5254845047069938
sS'poi'
p17
I00
sS'long_term_incentive'
p18
F-0.46913488763141326
sS'expenses'
p19
F1.260130847480252
sS'restricted_stock'
p20
F-0.13382658891101412
sS'from_poi_to_this_person'
p21
F-0.37294536730355027
ssS'BAXTER JOHN C'
p22
(dp23
g3
F0.5059388957045502
sg4
F0.058513196891655225
sg5
F-0.16652374576289744
sg6
F2.012777733401596
sg7
F0.4161433215688838
sg8
F0.5680460696509877
sg9
F-2.19391070781891
sg10
F-0.4698580389808247
sg11
F1.2335753238740375
sg12
F-0.024235824434650655
sg13
F0.9279419680481008
sg14
F0.07498971408123573
sg15
F2.4779133350526403
sg16
F0.014880131953519712
sg17
I00
sg18
F1.8942891118230696
sg19
F-0.5349176484609904
sg20
F1.5600100876870322
sg21
F0.021432619120320653
ssS'ELLIOTT STEVEN'
p24
(dp25
g3
F-0.024963876888176636
sg4
F0.058513196891655225
sg5
F-0.16652374576289744
sg6
F-0.332792686200731
sg7
F-0.20160931801464127
sg8
F-0.23614220600961391
sg9
F-0.4068178088239063
sg10
F-0.4698580389808247
sg11
F0.6039069662868655
sg12
F-0.024235824434650655
sg13
F0.5652963398855565
sg14
F0.07498971408123573
sg15
F-0.2422596180412756
sg16
F0.014880131953519712
sg17
I00
sg18
F-0.46913488763141326
sg19
F0.9199747846445169
sg20
F0.47321749850901945
sg21
F0.021432619120320653
ssS'CORDES WILLIAM R'
p26
(dp27
g3
F-0.9687253898692534
sg4
F-0.6689763606433502
sg5
F-0.6745984257137859
sg6
F-0.332792686200731
sg7
F-0.22572934225677338
sg8
F-0.5672785548110381
sg9
F0.3199872793614952
sg10
F-0.7777434649485017
sg11
F-0.29649996615802654
sg12
F-1.2390214028272546
sg13
F-0.29330678775000085
sg14
F-0.418322484512372
sg15
F-0.2555771877565033
sg16
F-0.5408019274784729
sg17
I00
sg18
F-0.46913488763141326
sg19
F-0.7768524870816949
sg20
F-0.23407851532575275
sg21
F-0.9116079829068862
ssS'HANNON KEVIN P'
p28
(dp29
g3
F0.3744899287360262
sg4
F-0.5045304283045918
sg5
F-0.11983265024261312
sg6
F-0.332792686200731
sg7
F-0.19284226308205532
sg8
F0.8518772257664942
sg9
F-5.333358135444686
sg10
F2.946950424565782
sg11
F0.5579859014516239
sg12
F-0.0528019530028657
sg13
F0.6964939600390975
sg14
F-0.40329997164467485
sg15
F-0.24391493821805454
sg16
F-0.21913604927741134
sg17
I01
sg18
F1.9404174953451498
sg19
F-0.04156498959864513
sg20
F0.0013725374432446312
sg21
F-0.4883730706471222
ssS'MORDAUNT KRISTINA M'
p30
(dp31
g3
F0.5058892069018824
sg4
F0.058513196891655225
sg5
F-0.16652374576289744
sg6
F-0.332792686200731
sg7
F-0.15412718910191048
sg8
F-0.2597948023525728
sg9
F0.3199872793614952
sg10
F-0.4698580389808247
sg11
F-0.4289418595330016
sg12
F-0.024235824434650655
sg13
F-0.425353795189256
sg14
F0.07498971408123573
sg15
F-0.25412736977423445
sg16
F0.014880131953519712
sg17
I00
sg18
F-0.46913488763141326
sg19
F-0.020417292544210344
sg20
F-0.32378599752344556
sg21
F0.021432619120320653
ssS'MEYER ROCKFORD G'
p32
(dp33
g3
F-0.9687253898692534
sg4
F-0.980311720088971
sg5
F-1.0887506155747486
sg6
F3.0129041907221885
sg7
F-0.015176596737996326
sg8
F-0.5672785548110381
sg9
F0.3199872793614952
sg10
F-0.7777434649485017
sg11
F-0.3096395173406956
sg12
F-1.2827306148985729
sg13
F-0.3253864013805721
sg14
F-0.40630447421821425
sg15
F-0.2555771877565033
sg16
F-0.5408019274784729
sg17
I00
sg18
F-0.46913488763141326
sg19
F-0.7768524870816949
sg20
F-0.1957140316274407
sg21
F-1.103987488479506
ssS'MCMAHON JEFFREY'
p34
(dp35
g3
F1.0765098957603727
sg4
F0.2621036334881964
sg5
F-0.30947622758668153
sg6
F-0.332792686200731
sg7
F0.24132261621383772
sg8
F1.8925914648566846
sg9
F0.3199872793614952
sg10
F2.2966070470315416
sg11
F-0.19678323667413744
sg12
F1.395672769249433
sg13
F-0.20170260741394055
sg14
F-0.3912819613505171
sg15
F0.04995628246432016
sg16
F-0.14254893542001573
sg17
I00
sg18
F0.5662980116746895
sg19
F2.184861964133264
sg20
F-0.14707449100573428
sg21
F0.011813643841689656
ssS'HORTON STANLEY C'
p36
(dp37
g3
F-0.9687253898692534
sg4
F0.2591775492828804
sg5
F-0.4963191256017221
sg6
F5.3365619011739875
sg7
F0.13105676766394367
sg8
F-0.5672785548110381
sg9
F0.3199872793614952
sg10
F-0.6983996994948622
sg11
F0.6961598266550963
sg12
F-0.005450306592270853
sg13
F0.630165179276882
sg14
F0.37862182311896175
sg15
F-0.2555771877565033
sg16
F-0.3110405859062861
sg17
I00
sg18
F-0.46913488763141326
sg19
F-0.7768524870816949
sg20
F0.6032135152252238
sg21
F-0.25751766395997827
ssS'PIPER GREGORY F'
p38
(dp39
g3
F0.11940969975203933
sg4
F-0.3915835779793948
sg5
F0.4703082419600093
sg6
F1.712820713024834
sg7
F-0.027776084002756392
sg8
F-0.18883701332369615
sg9
F0.25953097596322855
sg10
F0.44944010740112084
sg11
F-0.32170491117196776
sg12
F-0.40854637347220646
sg13
F-0.24703108263467766
sg14
F-0.2605860994015519
sg15
F-0.25477778421985897
sg16
F0.19443436555252497
sg17
I00
sg18
F-0.46913488763141326
sg19
F0.1532357581407756
sg20
F-0.22236521275778856
sg21
F0.06952749551347565
ssS'HUMPHREY GENE E'
p40
(dp41
g3
F-0.24700105209810264
sg4
F-1.0411742715595436
sg5
F1.3832202676578722
sg6
F5.03361439789622
sg7
F0.1274527478886498
sg8
F-0.5672785548110381
sg9
F0.3199872793614952
sg10
F4.897980557168502
sg11
F-0.09782587210637182
sg12
F-1.1649585712619652
sg13
F0.037072657335241205
sg14
F-0.4145668562954477
sg15
F-0.2555771877565033
sg16
F-0.2804057403633278
sg17
I00
sg18
F-0.46913488763141326
sg19
F-0.6689754706467129
sg20
F-0.42897315969434907
sg21
F-0.9116079829068862
ssS'UMANOFF ADAM S'
p42
(dp43
g3
F0.6245681515847918
sg4
F-1.051122957857618
sg5
F2.3319226066282295
sg6
F-0.332792686200731
sg7
F-0.09694555798573837
sg8
F0.17896085980931428
sg9
F0.3199872793614952
sg10
F-0.7777434649485017
sg11
F-0.46222653026264404
sg12
F-1.259661864083155
sg13
F-0.425353795189256
sg14
F-0.41381573065206284
sg15
F-0.2555771877565033
sg16
F-0.5408019274784729
sg17
I00
sg18
F-0.46913488763141326
sg19
F0.3706530930262568
sg20
F-0.42897315969434907
sg21
F-0.8731320817923621
ssS'BLACHMAN JEREMY M'
p44
(dp45
g3
F0.40349162655977594
sg4
F0.33232965441578
sg5
F-0.7691422589547733
sg6
F-0.332792686200731
sg7
F0.0038036323276933355
sg8
F0.23690972084956352
sg9
F0.3199872793614952
sg10
F0.033074252496784556
sg11
F-0.30988199690924545
sg12
F1.5146589576657996
sg13
F-0.27032228271804537
sg14
F-0.41682023322560224
sg15
F-0.25529770477196956
sg16
F-0.5101670819355146
sg17
I00
sg18
F0.7703664875177675
sg19
F1.0421518781479726
sg20
F-0.3336075353888013
sg21
F-0.6230387245479562
ssS'SUNDE MARTIN'
p46
(dp47
g3
F0.45284917054308493
sg4
F0.43298695107864993
sg5
F-0.6464667431535286
sg6
F-0.332792686200731
sg7
F-0.04971394239598996
sg8
F0.0949941427918103
sg9
F0.3199872793614952
sg10
F1.1639515952494206
sg11
F-0.3506571951402918
sg12
F1.8048395600281628
sg13
F-0.425353795189256
sg14
F-0.39879321778436566
sg15
F-0.14139811346474115
sg16
F-0.34167543144924434
sg17
I00
sg18
F0.24083779803464989
sg19
F-0.7768524870816949
sg20
F-0.07638857677512263
sg21
F-0.39218331786081223
ssS'GIBBS DANA R'
p48
(dp49
g3
F-0.9687253898692534
sg4
F-1.0171803810759525
sg5
F-1.0887506155747486
sg6
F0.5806622633612408
sg7
F-0.1156217306353116
sg8
F-0.5672785548110381
sg9
F0.3199872793614952
sg10
F-0.7777434649485017
sg11
F-0.10812095756686209
sg12
F-1.281516470118814
sg13
F0.02400813689222536
sg14
F-0.418322484512372
sg15
F-0.2555771877565033
sg16
F-0.5408019274784729
sg17
I00
sg18
F0.2191728358939494
sg19
F-0.7768524870816949
sg20
F-0.42897315969434907
sg21
F-1.103987488479506
ssS'LOWRY CHARLES P'
p50
(dp51
g3
F-0.9687253898692534
sg4
F0.058513196891655225
sg5
F-0.16652374576289744
sg6
F-0.332792686200731
sg7
F-0.22572934225677338
sg8
F-0.5672785548110381
sg9
F0.3199872793614952
sg10
F-0.4698580389808247
sg11
F-0.4028110544153151
sg12
F-0.024235824434650655
sg13
F-0.3499552274145717
sg14
F0.07498971408123573
sg15
F-0.2555771877565033
sg16
F0.014880131953519712
sg17
I00
sg18
F-0.46913488763141326
sg19
F-0.7768524870816949
sg20
F-0.35144309300499377
sg21
F0.021432619120320653
ssS'COLWELL WESLEY'
p52
(dp53
g3
F0.6243086656153047
sg4
F-0.0872708206265323
sg5
F3.2308708595621183
sg6
F-0.2828125210089868
sg7
F-0.055947155887114096
sg8
F0.5680460696509877
sg9
F0.058700987093739894
sg10
F0.7830806411336745
sg11
F-0.35076542499379854
sg12
F0.064970090633742
sg13
F-0.425353795189256
sg14
F-0.397290966497596
sg15
F-0.15103822140921042
sg16
F-0.3723102769922026
sg17
I01
sg18
F-0.46913488763141326
sg19
F-0.42012820806541695
sg20
F-0.07673060783335424
sg21
F3.5131206452633728
ssS'MULLER MARK S'
p54
(dp55
g3
F0.42065082641437596
sg4
F-1.036492536831038
sg5
F1.7031223819585646
sg6
F1.1930849220602537
sg7
F0.13905519440636943
sg8
F0.4734356842791522
sg9
F-0.9840682254941645
sg10
F-0.7777434649485017
sg11
F-0.236053592974493
sg12
F-1.1710292951607595
sg13
F-0.2113722121590589
sg14
F-0.4153179819388325
sg15
F-0.25460413486549793
sg16
F-0.5408019274784729
sg17
I00
sg18
F2.102146981621977
sg19
F-0.7768524870816949
sg20
F-0.24709738777381043
sg21
F-0.8731320817923621
ssS'JACKSON CHARLENE R'
p56
(dp57
g3
F0.6243970012644918
sg4
F-0.9650960822213279
sg5
F1.9772597822331535
sg6
F-0.332792686200731
sg7
F-0.16293878733112493
sg8
F-0.3307525913814494
sg9
F0.3199872793614952
sg10
F1.1479486139840533
sg11
F-0.3463766884709936
sg12
F-1.1673868608214828
sg13
F-0.3878650856123121
sg14
F-0.38527295620343827
sg15
F-0.2530751985383427
sg16
F-0.2497708948203696
sg17
I00
sg18
F-0.46913488763141326
sg19
F-0.5569293985104992
sg20
F-0.1562200382840246
sg21
F-0.6230387245479562
ssS'WESTFAHL RICHARD K'
p58
(dp59
g3
F-0.6167961635077266
sg4
F0.058513196891655225
sg5
F-0.16652374576289744
sg6
F-0.332792686200731
sg7
F-0.13890579909570433
sg8
F-0.5672785548110381
sg9
F0.30039924118007494
sg10
F-0.4698580389808247
sg11
F-0.40077974927390847
sg12
F-0.024235824434650655
sg13
F-0.425353795189256
sg14
F0.07498971408123573
sg15
F0.1565882886626985
sg16
F0.014880131953519712
sg17
I00
sg18
F-0.08737766115172409
sg19
F0.34360823428044235
sg20
F-0.23478729650099672
sg21
F0.021432619120320653
ssS'WALTERS GARETH W'
p60
(dp61
g3
F-0.9687253898692534
sg4
F0.058513196891655225
sg5
F-0.16652374576289744
sg6
F-0.23571965619684535
sg7
F-0.2157714661485917
sg8
F-0.5672785548110381
sg9
F0.3199872793614952
sg10
F-0.4698580389808247
sg11
F-0.2977540277054443
sg12
F-0.024235824434650655
sg13
F-0.21663727892342755
sg14
F0.07498971408123573
sg15
F-0.2555771877565033
sg16
F0.014880131953519712
sg17
I00
sg18
F-0.46913488763141326
sg19
F-0.047051726117364676
sg20
F-0.42897315969434907
sg21
F0.021432619120320653
ssS'WALLS JR ROBERT H'
p62
(dp63
g3
F1.0027661916233415
sg4
F-0.7234015268622276
sg5
F-0.28710998339677796
sg6
F-0.332792686200731
sg7
F-0.020809671900120334
sg8
F0.23690972084956352
sg9
F0.3199872793614952
sg10
F-0.7777434649485017
sg11
F0.47943656877408475
sg12
F-1.0484006724051163
sg13
F0.45513731151174824
sg14
F-0.31767164829880107
sg15
F-0.2555751327345582
sg16
F-0.5408019274784729
sg17
I00
sg18
F0.3366529892890031
sg19
F0.32343259684546577
sg20
F0.354193717067944
sg21
F-0.7769423290060521
ssS'KITCHEN LOUISE'
p64
(dp65
g3
F0.5298999405465593
sg4
F3.744143837814219
sg5
F-0.13246547967471678
sg6
F-0.332792686200731
sg7
F0.16970815953970145
sg8
F2.365643391715862
sg9
F0.3199872793614952
sg10
F-0.1405383374654584
sg11
F-0.37488551737583414
sg12
F3.145255396881925
sg13
F-0.40893689931306954
sg14
F0.8706091195360433
sg15
F-0.15906821965969295
sg16
F2.430778090188477
sg17
I00
sg18
F-0.46913488763141326
sg19
F-0.652126437242771
sg20
F-0.1938389144542152
sg21
F3.724738101393255
ssS'CHAN RONNIE'
p66
(dp67
g3
F-0.9687253898692534
sg4
F0.058513196891655225
sg5
F-0.16652374576289744
sg6
F-0.332792686200731
sg7
F-0.22572934225677338
sg8
F-0.5672785548110381
sg9
F0.14082202346210507
sg10
F-0.4698580389808247
sg11
F-0.46222653026264404
sg12
F-0.024235824434650655
sg13
F-0.425353795189256
sg14
F0.07498971408123573
sg15
F-0.2555771877565033
sg16
F0.014880131953519712
sg17
I00
sg18
F-0.46913488763141326
sg19
F-0.7768524870816949
sg20
F-0.41259804442857034
sg21
F0.021432619120320653
ssS'BELFER ROBERT'
p68
(dp69
g3
F-0.9687253898692534
sg4
F0.058513196891655225
sg5
F-0.16652374576289744
sg6
F-0.5183402027582746
sg7
F-0.22535511021220894
sg8
F-0.5672785548110381
sg9
F0.3199872793614952
sg10
F-0.4698580389808247
sg11
F-0.46222653026264404
sg12
F-0.024235824434650655
sg13
F-0.425353795189256
sg14
F0.07498971408123573
sg15
F-0.2555771877565033
sg16
F0.014880131953519712
sg17
I00
sg18
F-0.46913488763141326
sg19
F-0.7058921348612471
sg20
F-0.4067295380857852
sg21
F0.021432619120320653
ssS'SHANKMAN JEFFREY A'
p70
(dp71
g3
F0.7102592522743824
sg4
F0.7689014178489251
sg5
F-0.16534938406109154
sg6
F-0.332792686200731
sg7
F0.12044407091888029
sg8
F1.3249291526256717
sg9
F0.3199872793614952
sg10
F-0.6020310092097059
sg11
F-0.13146540266543244
sg12
F0.7910286689295296
sg13
F-0.13326463981202646
sg14
F1.5864318576818124
sg15
F-0.25435342218819557
sg16
F0.7305441625542943
sg17
I00
sg18
F0.35702452085413944
sg19
F3.089331038051792
sg20
F-0.11108757718566054
sg21
F0.7043798639031215
ssS'WODRASKA JOHN'
p72
(dp73
g3
F-0.9687253898692534
sg4
F0.058513196891655225
sg5
F-0.16652374576289744
sg6
F-0.332792686200731
sg7
F-0.20413176730862775
sg8
F-0.5672785548110381
sg9
F0.3199872793614952
sg10
F-0.4698580389808247
sg11
F-0.46222653026264404
sg12
F-0.024235824434650655
sg13
F-0.425353795189256
sg14
F0.07498971408123573
sg15
F-0.06077857504745252
sg16
F0.014880131953519712
sg17
I00
sg18
F-0.46913488763141326
sg19
F-0.7768524870816949
sg20
F-0.42897315969434907
sg21
F0.021432619120320653
ssS'BERGSIEKER RICHARD P'
p74
(dp75
g3
F0.06878785178973951
sg4
F-0.8919439770884283
sg5
F-0.758293933534252
sg6
F-0.332792686200731
sg7
F-0.15522903760572393
sg8
F-0.3307525913814494
sg9
F-0.561135275548717
sg10
F-0.7777434649485017
sg11
F-0.35698991861885704
sg12
F-1.0265460663694572
sg13
F-0.425353795189256
sg14
F-0.3830195792732837
sg15
F0.18349469098990717
sg16
F-0.5408019274784729
sg17
I00
sg18
F-0.20053942536707153
sg19
F0.5014059125058214
sg20
F-0.0964014294463706
sg21
F-1.0270356862504582
ssS'URQUHART JOHN A'
p76
(dp77
g3
F-0.9687253898692534
sg4
F0.058513196891655225
sg5
F-0.16652374576289744
sg6
F-0.332792686200731
sg7
F-0.199680513525594
sg8
F-0.5672785548110381
sg9
F0.25348588973557357
sg10
F-0.4698580389808247
sg11
F-0.46222653026264404
sg12
F-0.024235824434650655
sg13
F-0.425353795189256
sg14
F0.07498971408123573
sg15
F-0.2555771877565033
sg16
F0.014880131953519712
sg17
I00
sg18
F-0.46913488763141326
sg19
F4.162420053959
sg20
F-0.42897315969434907
sg21
F0.021432619120320653
ssS'BIBI PHILIPPE A'
p78
(dp79
g3
F0.21069355123079
sg4
F-0.17563856362707506
sg5
F-0.6358892415712118
sg6
F-0.332792686200731
sg7
F0.007535471997660336
sg8
F0.37882529890731675
sg9
F0.3199872793614952
sg10
F0.35740133947489916
sg11
F-0.1678962418062327
sg12
F0.3126556257045458
sg13
F-0.12843611719283174
sg14
F-0.397290966497596
sg15
F0.18182190312659488
sg16
F-0.4182625453066399
sg17
I00
sg18
F0.08179650157155312
sg19
F0.05607299884471057
sg20
F-0.23824191108325343
sg21
F-0.6615146256624802
ssS'PIRO JIM'
p80
(dp81
g3
F-0.9687253898692534
sg4
F-1.0821394504339674
sg5
F-1.0887506155747486
sg6
F-0.332792686200731
sg7
F-0.22572934225677338
sg8
F-0.5672785548110381
sg9
F0.3199872793614952
sg10
F-0.4230107135661889
sg11
F-0.4546753429613395
sg12
F-1.3057993657139908
sg13
F-0.425353795189256
sg14
F-0.4153179819388325
sg15
F-0.2555771877565033
sg16
F-0.5254845047069938
sg17
I00
sg18
F-0.46913488763141326
sg19
F-0.7768524870816949
sg20
F-0.405109683029765
sg21
F-1.103987488479506
ssS'RIEKER PAULA H'
p82
(dp83
g3
F0.40710786719837405
sg4
F-0.3389140622837071
sg5
F-0.25483272725531014
sg6
F0.05582165291673593
sg7
F-0.10051824935547507
sg8
F0.0949941427918103
sg9
F0.13861655545945628
sg10
F2.5446315723882806
sg11
F-0.1559125790737739
sg12
F0.2179523328833561
sg13
F-0.09409923608677437
sg14
F-0.36574368947543195
sg15
F-0.2535735413600297
sg16
F0.19443436555252497
sg17
I01
sg18
F-0.46913488763141326
sg19
F-0.05815480710406486
sg20
F-0.2858805820596331
sg21
F-0.4306592189753362
ssS'WHALEY DAVID A'
p84
(dp85
g3
F-0.9687253898692534
sg4
F0.058513196891655225
sg5
F-0.16652374576289744
sg6
F-0.332792686200731
sg7
F-0.22572934225677338
sg8
F-0.5672785548110381
sg9
F0.3199872793614952
sg10
F-0.4698580389808247
sg11
F-0.4464680720347948
sg12
F-0.024235824434650655
sg13
F-0.40535622445919783
sg14
F0.07498971408123573
sg15
F-0.2555771877565033
sg16
F0.014880131953519712
sg17
I00
sg18
F-0.46913488763141326
sg19
F-0.7768524870816949
sg20
F-0.42897315969434907
sg21
F0.021432619120320653
ssS'BECK SALLY W'
p86
(dp87
g3
F0.3084424680344238
sg4
F3.1647791651616544
sg5
F-0.46587478071837585
sg6
F-0.332792686200731
sg7
F-0.11533168656058981
sg8
F0.0949941427918103
sg9
F0.3199872793614952
sg10
F-0.2732927459668844
sg11
F-0.44210870762562593
sg12
F1.8946862737303172
sg13
F-0.425353795189256
sg14
F2.8348026769874455
sg15
F-0.2549956165460397
sg16
F5.371723262312468
sg17
I00
sg18
F-0.46913488763141326
sg19
F0.026111961240521554
sg20
F-0.36539624498084633
sg21
F1.6662773917662215
ssS'HAUG DAVID L'
p88
(dp89
g3
F-0.9687253898692534
sg4
F-0.7807527772864209
sg5
F-0.8678694476489018
sg6
F-0.332792686200731
sg7
F-0.22567522955626557
sg8
F-0.5672785548110381
sg9
F0.3199872793614952
sg10
F1.3133127537261837
sg11
F-0.1082767574739751
sg12
F-0.7375796087868527
sg13
F-0.425353795189256
sg14
F-0.413064605008678
sg15
F-0.2555771877565033
sg16
F-0.43357996807811905
sg17
I00
sg18
F-0.46913488763141326
sg19
F-0.7665918577651918
sg20
F0.689588969193389
sg21
F-1.0270356862504582
ssS'ECHOLS JOHN B'
p90
(dp91
g3
F0.03744525926253087
sg4
F0.058513196891655225
sg5
F-0.16652374576289744
sg6
F-0.332792686200731
sg7
F0.08098417833679868
sg8
F-0.3780577840673671
sg9
F0.3199872793614952
sg10
F-0.4698580389808247
sg11
F-0.3011682166535311
sg12
F-0.024235824434650655
sg13
F-0.30351888215673206
sg14
F0.07498971408123573
sg15
F-0.2003227852075975
sg16
F0.014880131953519712
sg17
I00
sg18
F2.860963062916892
sg19
F-0.3117759624831443
sg20
F-0.22339988193246857
sg21
F0.021432619120320653
ssS'MENDELSOHN JOHN'
p92
(dp93
g3
F-0.9687253898692534
sg4
F0.058513196891655225
sg5
F-0.16652374576289744
sg6
F-0.332792686200731
sg7
F-0.2257124818785099
sg8
F-0.5672785548110381
sg9
F0.13181515331312982
sg10
F-0.4698580389808247
sg11
F-0.46222653026264404
sg12
F-0.024235824434650655
sg13
F-0.425353795189256
sg14
F0.07498971408123573
sg15
F-0.2555771877565033
sg16
F0.014880131953519712
sg17
I00
sg18
F-0.46913488763141326
sg19
F-0.7736554909999213
sg20
F-0.42897315969434907
sg21
F0.021432619120320653
ssS'HICKERSON GARY J'
p94
(dp95
g3
F0.20055151450849262
sg4
F-0.3435957970122126
sg5
F-0.12992554571482287
sg6
F-0.332792686200731
sg7
F0.011431928198645783
sg8
F1.0410979965101652
sg9
F0.3199872793614952
sg10
F-0.5675314641293534
sg11
F-0.39181391158650214
sg12
F-0.2167114982703094
sg13
F-0.425353795189256
sg14
F-0.4070555998615991
sg15
F-0.2535879265136454
sg16
F-0.5254845047069938
sg17
I00
sg18
F-0.3659837992301676
sg19
F1.358416875669913
sg20
F-0.20645320149120835
sg21
F-0.33446946618902623
ssS'CLINE KENNETH W'
p96
(dp97
g3
F-0.9687253898692534
sg4
F0.058513196891655225
sg5
F-0.16652374576289744
sg6
F-0.332792686200731
sg7
F-0.22572934225677338
sg8
F-0.5672785548110381
sg9
F0.3199872793614952
sg10
F-0.4698580389808247
sg11
F-0.43197357247961027
sg12
F-0.024235824434650655
sg13
F-0.425353795189256
sg14
F0.07498971408123573
sg15
F-0.2555771877565033
sg16
F0.014880131953519712
sg17
I00
sg18
F-0.46913488763141326
sg19
F-0.7768524870816949
sg20
F-0.09497024639002388
sg21
F0.021432619120320653
ssS'RICE KENNETH D'
p98
(dp99
g3
F1.3535967433481033
sg4
F-0.5864607860534394
sg5
F0.3796820328516128
sg6
F-0.332792686200731
sg7
F-0.16819330143264388
sg8
F1.088403189196083
sg9
F-6.035942977160209
sg10
F0.483528539966388
sg11
F3.13626269339628
sg12
F-0.2604207103416277
sg13
F3.5844054645774346
sg14
F-0.41381573065206284
sg15
F-0.07592819682673782
sg16
F-0.47953223639255643
sg17
I01
sg18
F1.9404174953451498
sg19
F0.23732971588634721
sg20
F0.9574956416709243
sg21
F-0.29599356507450225
ssS'HAYES ROBERT E'
p100
(dp101
g3
F-0.9687253898692534
sg4
F-0.8211327393197815
sg5
F-0.0842672090548265
sg6
F-0.31838152737814945
sg7
F-0.22482241339626274
sg8
F-0.5672785548110381
sg9
F0.3199872793614952
sg10
F-0.7777434649485017
sg11
F-0.43805551557490247
sg12
F-1.2487345610653253
sg13
F-0.425353795189256
sg14
F-0.418322484512372
sg15
F-0.2555771877565033
sg16
F-0.5408019274784729
sg17
I00
sg18
F-0.46913488763141326
sg19
F-0.7768524870816949
sg20
F-0.35258723229713135
sg21
F-0.7961802795633142
ssS'KOPPER MICHAEL J'
p102
(dp103
g3
F0.2696575970631994
sg4
F0.29847068003998084
sg5
F0.19129785313275313
sg6
F-0.332792686200731
sg7
F0.07646012873139757
sg8
F0.18960452816364579
sg9
F0.3199872793614952
sg10
F0.48292864840638094
sg11
F-0.30498483548464245
sg12
F0.8553783422567482
sg13
F-0.425353795189256
sg14
F-0.20173004005918133
sg15
F0.6768910748550652
sg16
F0.4810889917044913
sg17
I01
sg18
F0.42892167735229325
sg19
F1.7749984259199385
sg20
F0.06794651191626655
sg21
F0.7772092481556134
ssS'LEFF DANIEL P'
p104
(dp105
g3
F0.542620274029506
sg4
F0.5353998982647094
sg5
F-0.3375237447525318
sg6
F-0.332792686200731
sg7
F0.07778344058213134
sg8
F0.37882529890731675
sg9
F0.3199872793614952
sg10
F0.483528539966388
sg11
F-0.40467506621383814
sg12
F1.934753051462359
sg13
F-0.425353795189256
sg14
F-0.38001507669974427
sg15
F-0.2524093714281299
sg16
F-0.3263580086777652
sg17
I00
sg18
F1.5982663647962454
sg19
F-0.7768524870816949
sg20
F-0.24709738777381043
sg21
F0.18495519885704761
ssS'CHRISTODOULOU DIOMEDES'
p106
(dp107
g3
F-0.9687253898692534
sg4
F0.058513196891655225
sg5
F-0.16652374576289744
sg6
F-0.332792686200731
sg7
F-0.22572934225677338
sg8
F-0.5672785548110381
sg9
F0.3199872793614952
sg10
F-0.4698580389808247
sg11
F0.5079926484704267
sg12
F-0.024235824434650655
sg13
F0.6132677809819705
sg14
F0.07498971408123573
sg15
F-0.2555771877565033
sg16
F0.014880131953519712
sg17
I00
sg18
F-0.46913488763141326
sg19
F-0.7768524870816949
sg20
F0.05064216182856652
sg21
F0.021432619120320653
ssS'BERBERIAN DAVID'
p108
(dp109
g3
F0.2270190833961865
sg4
F0.058513196891655225
sg5
F-0.16652374576289744
sg6
F-0.332792686200731
sg7
F-0.19970124723399907
sg8
F-0.5672785548110381
sg9
F0.3199872793614952
sg10
F-0.4698580389808247
sg11
F-0.06416798397628866
sg12
F-0.024235824434650655
sg13
F-0.09629552918281856
sg14
F0.07498971408123573
sg15
F-0.2555771877565033
sg16
F0.014880131953519712
sg17
I00
sg18
F-0.46913488763141326
sg19
F-0.5199695316462112
sg20
F0.009522764252669205
sg21
F0.021432619120320653
ssS'DETMERING TIMOTHY J'
p110
(dp111
g3
F0.19344049474892863
sg4
F0.058513196891655225
sg5
F-0.16652374576289744
sg6
F1.2517052657547214
sg7
F-0.08850147043407788
sg8
F-0.1651844169807373
sg9
F-1.0860729343239102
sg10
F-0.4698580389808247
sg11
F-0.13851630624860978
sg12
F-0.024235824434650655
sg13
F-0.014563728853741603
sg14
F0.07498971408123573
sg15
F-0.25444178813183493
sg16
F0.014880131953519712
sg17
I00
sg18
F0.15024699341385436
sg19
F0.35192474435802906
sg20
F-0.2700306206752985
sg21
F0.021432619120320653
ssS'WAKEHAM JOHN'
p112
(dp113
g3
F-0.9687253898692534
sg4
F0.058513196891655225
sg5
F-0.16652374576289744
sg6
F-0.332792686200731
sg7
F-0.2014559797096234
sg8
F-0.5672785548110381
sg9
F0.3199872793614952
sg10
F-0.4698580389808247
sg11
F-0.46222653026264404
sg12
F-0.024235824434650655
sg13
F-0.425353795189256
sg14
F0.07498971408123573
sg15
F-0.2555771877565033
sg16
F0.014880131953519712
sg17
I00
sg18
F-0.46913488763141326
sg19
F1.4647817993635157
sg20
F-0.42897315969434907
sg21
F0.021432619120320653
ssS'POWERS WILLIAM'
p114
(dp115
g3
F-0.9687253898692534
sg4
F-0.7339354300013651
sg5
F-1.0887506155747486
sg6
F-0.332792686200731
sg7
F-0.22572934225677338
sg8
F-0.5672785548110381
sg9
F0.28824740267863835
sg10
F-0.7777434649485017
sg11
F-0.46222653026264404
sg12
F-1.2948720626961614
sg13
F-0.425353795189256
sg14
F-0.407806725504984
sg15
F-0.2555771877565033
sg16
F-0.5408019274784729
sg17
I00
sg18
F-0.46913488763141326
sg19
F-0.7768524870816949
sg20
F-0.42897315969434907
sg21
F-1.103987488479506
ssS'GOLD JOSEPH'
p116
(dp117
g3
F0.5378391070172526
sg4
F0.058513196891655225
sg5
F-0.16652374576289744
sg6
F-0.332792686200731
sg7
F0.01885698815863843
sg8
F0.14229933547772805
sg9
F0.3199872793614952
sg10
F-0.4698580389808247
sg11
F-0.32213256276126667
sg12
F-0.024235824434650655
sg13
F-0.336927777773675
sg14
F0.07498971408123573
sg15
F0.586250221922491
sg16
F0.014880131953519712
sg17
I00
sg18
F-0.014936608155781187
sg19
F-0.7768524870816949
sg20
F-0.20645320149120835
sg21
F0.021432619120320653
ssS'BANNANTINE JAMES M'
p118
(dp119
g3
F-0.966091883327862
sg4
F-0.7848492951738633
sg5
F1.0914752941597468
sg6
F-0.332792686200731
sg7
F-0.12135482885226896
sg8
F-0.5672785548110381
sg9
F0.3107301176135351
sg10
F-0.7777434649485017
sg11
F0.37479681763510875
sg12
F-0.7448644774654057
sg13
F0.3942871091282927
sg14
F-0.4055533485748294
sg15
F0.6327296807658152
sg16
F-0.5408019274784729
sg17
I00
sg18
F-0.46913488763141326
sg19
F0.4393237048097585
sg20
F0.4576601300653549
sg21
F-0.35370741674628825
ssS'DUNCAN JOHN H'
p120
(dp121
g3
F-0.9687253898692534
sg4
F0.058513196891655225
sg5
F-0.16652374576289744
sg6
F-0.332792686200731
sg7
F-0.21690133933519443
sg8
F-0.5672785548110381
sg9
F0.27464459838598543
sg10
F-0.4698580389808247
sg11
F-0.4028836865441434
sg12
F-0.024235824434650655
sg13
F-0.3500473979881467
sg14
F0.07498971408123573
sg15
F-0.2555771877565033
sg16
F0.014880131953519712
sg17
I00
sg18
F-0.46913488763141326
sg19
F-0.7768524870816949
sg20
F-0.42897315969434907
sg21
F0.021432619120320653
ssS'SHAPIRO RICHARD S'
p122
(dp123
g3
F0.5168373064230124
sg4
F7.74936789805074
sg5
F-0.9341892042209999
sg6
F-0.332792686200731
sg7
F-0.10525191447442216
sg8
F0.04768895010589255
sg9
F0.3199872793614952
sg10
F-0.47410390820973186
sg11
F-0.30467052194252614
sg12
F4.1869916179150115
sg13
F-0.302222619518696
sg14
F0.4852816644796115
sg15
F-0.25485279252085513
sg16
F0.4548305526676701
sg17
I00
sg18
F-0.46913488763141326
sg19
F2.1990972372271074
sg20
F-0.23769607390772746
sg21
F0.3196208527578816
ssS'SHERRIFF JOHN R'
p124
(dp125
g3
F1.3985595887843527
sg4
F0.7490040452527763
sg5
F-0.8107605419787112
sg6
F-0.332792686200731
sg7
F0.2681644523307745
sg8
F0.8518772257664942
sg9
F0.3199872793614952
sg10
F0.6411875405807492
sg11
F0.037256159243748616
sg12
F1.2439046717795779
sg13
F-0.053519874991075085
sg14
F-0.35823243304158336
sg15
F1.6475642504480081
sg16
F-0.1885012037344531
sg17
I00
sg18
F0.35702452085413944
sg19
F-0.7768524870816949
sg20
F0.22352120529408673
sg21
F-0.5653248728761702
ssS'SHELBY REX'
p126
(dp127
g3
F0.20086068928064757
sg4
F-0.9844082379764134
sg5
F0.7394091842915096
sg6
F-0.332792686200731
sg7
F0.002556192179145236
sg8
F-0.3780577840673671
sg9
F0.3124295612964972
sg10
F1.2596959276063202
sg11
F-0.06416798397628866
sg12
F-1.1989546250952128
sg13
F-0.09629552918281856
sg14
F-0.3980420921409808
sg15
F1.3610304856206168
sg16
F-0.3263580086777652
sg17
I01
sg18
F-0.46913488763141326
sg19
F-0.2825277685998913
sg20
F0.009522764252669205
sg21
F-0.8538941312351002
ssS'LEMAISTRE CHARLES'
p128
(dp129
g3
F-0.9687253898692534
sg4
F0.058513196891655225
sg5
F-0.16652374576289744
sg6
F-0.332792686200731
sg7
F-0.21576212458766192
sg8
F-0.5672785548110381
sg9
F0.27464459838598543
sg10
F-0.4698580389808247
sg11
F-0.39631838062227526
sg12
F-0.024235824434650655
sg13
F-0.34171598842772377
sg14
F0.07498971408123573
sg15
F-0.2555771877565033
sg16
F0.014880131953519712
sg17
I00
sg18
F-0.46913488763141326
sg19
F-0.7768524870816949
sg20
F-0.42897315969434907
sg21
F0.021432619120320653
ssS'DEFFNER JOSEPH M'
p130
(dp131
g3
F0.16926413176202595
sg4
F-0.69823720269651
sg5
F4.007525491033681
sg6
F-0.332792686200731
sg7
F-0.08803826571773117
sg8
F0.0003837574199748104
sg9
F0.3199872793614952
sg10
F-0.470947571861096
sg11
F-0.43681151078378405
sg12
F-0.6392338816263865
sg13
F-0.42183348699675866
sg14
F-0.3717526946225108
sg15
F-0.22932119987491908
sg16
F-0.47953223639255643
sg17
I00
sg18
F0.03057784288112341
sg19
F0.12232426224200525
sg20
F-0.3574225828769985
sg21
F1.1083768256056235
ssS'KISHKILL JOSEPH G'
p132
(dp133
g3
F-0.0067170443529600485
sg4
F0.058513196891655225
sg5
F-0.16652374576289744
sg6
F-0.332792686200731
sg7
F-0.14542655038910568
sg8
F-0.5672785548110381
sg9
F0.22741203446741648
sg10
F-0.4698580389808247
sg11
F-0.2971127897680745
sg12
F-0.024235824434650655
sg13
F-0.425353795189256
sg14
F0.07498971408123573
sg15
F0.22258223589670262
sg16
F0.014880131953519712
sg17
I00
sg18
F-0.46913488763141326
sg19
F1.7361376424664878
sg20
F0.09282397446144873
sg21
F0.021432619120320653
ssS'MCCARTY DANNY J'
p134
(dp135
g3
F-0.9687253898692534
sg4
F-0.27746629397207134
sg5
F-0.5367403694934934
sg6
F-0.332792686200731
sg7
F-0.22572934225677338
sg8
F-0.5672785548110381
sg9
F0.3199872793614952
sg10
F-0.7249460321846225
sg11
F-0.3410775760565233
sg12
F-0.6926562519357755
sg13
F-0.2907695648180738
sg14
F-0.2658439789052459
sg15
F-0.2555771877565033
sg16
F-0.5101670819355146
sg17
I00
sg18
F-0.46913488763141326
sg19
F-0.7768524870816949
sg20
F-0.3812724388357238
sg21
F-0.6230387245479562
ssS'MCCONNELL MICHAEL S'
p136
(dp137
g3
F1.0466414043789742
sg4
F0.8321048366837503
sg5
F-0.214315976916072
sg6
F-0.332792686200731
sg7
F0.013661143616617402
sg8
F0.4734356842791522
sg9
F0.3199872793614952
sg10
F-0.3761787456594065
sg11
F0.032833900199946
sg12
F1.3483211228388383
sg13
F-0.09657629493001624
sg14
F1.6322505219282886
sg15
F-0.255022331831326
sg16
F2.430778090188477
sg17
I00
sg18
F0.35702452085413944
sg19
F0.9807177101982152
sg20
F0.31677007101506255
sg21
F0.6659039627885975
ssS'DELAINEY DAVID W'
p138
(dp139
g3
F1.0473315266382488
sg4
F0.6939936621928358
sg5
F-0.4135740872349755
sg6
F-0.332792686200731
sg7
F0.3151674275206931
sg8
F2.2710330063440267
sg9
F0.3199872793614952
sg10
F0.34852435175702295
sg11
F0.11472175670674863
sg12
F1.2366198031010247
sg13
F0.03876312642641338
sg14
F1.877868607315137
sg15
F-0.2538704920310968
sg16
F8.787508540352313
sg17
I01
sg18
F1.460551771556046
sg19
F1.084620082855857
sg20
F0.23851608903284238
sg21
F0.16571724829978562
ssS'SULLIVAN-SHAKLOVITZ COLLEEN'
p140
(dp141
g3
F-0.07002609992976144
sg4
F0.058513196891655225
sg5
F-0.16652374576289744
sg6
F-0.0033453771191988505
sg7
F-0.11188123293326335
sg8
F-0.4726681694392026
sg9
F0.3199872793614952
sg10
F-0.4698580389808247
sg11
F-0.24474917529023713
sg12
F-0.024235824434650655
sg13
F-0.1493738277733548
sg14
F0.07498971408123573
sg15
F-0.2554107309789501
sg16
F0.014880131953519712
sg17
I00
sg18
F0.35702452085413944
sg19
F-0.7768524870816949
sg20
F-0.42897315969434907
sg21
F0.021432619120320653
ssS'WROBEL BRUCE'
p142
(dp143
g3
F-0.9687253898692534
sg4
F0.058513196891655225
sg5
F-0.16652374576289744
sg6
F-0.332792686200731
sg7
F-0.22572934225677338
sg8
F-0.5672785548110381
sg9
F0.3199872793614952
sg10
F-0.4698580389808247
sg11
F-0.4400170619464235
sg12
F-0.024235824434650655
sg13
F-0.3971698569442248
sg14
F0.07498971408123573
sg15
F-0.2555771877565033
sg16
F0.014880131953519712
sg17
I00
sg18
F-0.46913488763141326
sg19
F-0.7768524870816949
sg20
F-0.42897315969434907
sg21
F0.021432619120320653
ssS'LINDHOLM TOD A'
p144
(dp145
g3
F0.33674852262082483
sg4
F0.058513196891655225
sg5
F-0.16652374576289744
sg6
F0.03662789371615412
sg7
F-0.12594677565662302
sg8
F-0.3780577840673671
sg9
F0.3199872793614952
sg10
F-0.4698580389808247
sg11
F0.026916217457542406
sg12
F-0.024235824434650655
sg13
F0.09107711826068929
sg14
F0.07498971408123573
sg15
F-0.25287483389869536
sg16
F0.014880131953519712
sg17
I00
sg18
F-0.20836259417088732
sg19
F0.47012719408414466
sg20
F-0.16924799120265477
sg21
F0.021432619120320653
ssS'MEYER JEROME J'
p146
(dp147
g3
F-0.9687253898692534
sg4
F0.058513196891655225
sg5
F-0.16652374576289744
sg6
F-0.332792686200731
sg7
F-0.22548429716457913
sg8
F-0.5672785548110381
sg9
F0.25043886157401934
sg10
F-0.4698580389808247
sg11
F-0.46222653026264404
sg12
F-0.024235824434650655
sg13
F-0.425353795189256
sg14
F0.07498971408123573
sg15
F-0.2555771877565033
sg16
F0.014880131953519712
sg17
I00
sg18
F-0.46913488763141326
sg19
F-0.7303880372715935
sg20
F-0.42897315969434907
sg21
F0.021432619120320653
ssS'LAY KENNETH L'
p148
(dp149
g3
F4.951535339630289
sg4
F1.3845495346474084
sg5
F-0.17794533624841147
sg6
F0.034520798015929915
sg7
F11.571955001444639
sg8
F6.055448421217446
sg9
F-0.22412489234462152
sg10
F1.7448005448812776
sg11
F7.377266902843946
sg12
F1.6178612639453012
sg13
F6.532690720534286
sg14
F-0.4002954690711354
sg15
F10.389158032393626
sg16
F-0.29572316313480695
sg17
I01
sg18
F4.895323720699406
sg19
F1.3796509780238553
sg20
F7.01786728294751
sg21
F1.2622804300637194
ssS'BUTTS ROBERT H'
p150
(dp151
g3
F0.4750987121820934
sg4
F0.058513196891655225
sg5
F-0.16652374576289744
sg6
F-0.332792686200731
sg7
F-0.08086884554708482
sg8
F0.14229933547772805
sg9
F0.18395923643496598
sg10
F-0.4698580389808247
sg11
F-0.3955615698029897
sg12
F-0.024235824434650655
sg13
F-0.425353795189256
sg14
F0.07498971408123573
sg15
F-0.10077649467592775
sg16
F0.014880131953519712
sg17
I00
sg18
F-0.20836259417088732
sg19
F-0.5735840199905494
sg20
F-0.218296657470712
sg21
F0.021432619120320653
ssS'OLSON CINDY K'
p152
(dp153
g3
F0.8481070328308992
sg4
F-0.42318528739680744
sg5
F-0.5542704246055332
sg6
F-0.1921096540369645
sg7
F-0.07517561984629109
sg8
F0.14229933547772805
sg9
F0.3199872793614952
sg10
F0.85948461835448
sg11
F-0.04610620929379454
sg12
F-0.27013386857969846
sg13
F-0.09373541553701462
sg14
F-0.38827745877697767
sg15
F-0.25457844709118416
sg16
F-0.3110405859062861
sg17
I00
sg18
F-0.3201221485111127
sg19
F0.6011176281373546
sg20
F0.060226598517861975
sg21
F-0.7192284773342662
ssS'MCDONALD REBECCA'
p154
(dp155
g3
F-0.9687253898692534
sg4
F-0.5928981713051346
sg5
F0.8224644565621504
sg6
F-0.332792686200731
sg7
F-0.22572934225677338
sg8
F-0.5672785548110381
sg9
F0.3199872793614952
sg10
F-0.34114930940103977
sg11
F-0.19223199574001995
sg12
F-0.435257558626901
sg13
F-0.271945295103722
sg14
F-0.4175713588689871
sg15
F-0.2555771877565033
sg16
F-0.5254845047069938
sg17
I00
sg18
F-0.46913488763141326
sg19
F-0.7768524870816949
sg20
F0.042235159490174555
sg21
F-0.06513815838735833
ssS'CUMBERLAND MICHAEL S'
p156
(dp157
g3
F0.05209793507144609
sg4
F0.058513196891655225
sg5
F-0.16652374576289744
sg6
F-0.332792686200731
sg7
F-0.13368580320103562
sg8
F-0.2597948023525728
sg9
F0.3199872793614952
sg10
F-0.4698580389808247
sg11
F-0.42903284923285245
sg12
F-0.024235824434650655
sg13
F-0.425353795189256
sg14
F0.07498971408123573
sg15
F-0.25484457243307473
sg16
F0.014880131953519712
sg17
I00
sg18
F-0.059349855050586764
sg19
F-0.2941924840333896
sg20
F-0.32407354575824204
sg21
F0.021432619120320653
ssS'GAHN ROBERT S'
p158
(dp159
g3
F0.0913465682009029
sg4
F0.058513196891655225
sg5
F-0.16652374576289744
sg6
F-0.20042580321808992
sg7
F-0.12313337091611672
sg8
F-0.08488858291566051
sg9
F0.31809739641843593
sg10
F-0.4698580389808247
sg11
F-0.4113669595602356
sg12
F-0.024235824434650655
sg13
F-0.40849225226032865
sg14
F0.07498971408123573
sg15
F-0.1769243053406764
sg16
F0.014880131953519712
sg17
I00
sg18
F-0.46913488763141326
sg19
F0.30494186275088336
sg20
F-0.3102359175468954
sg21
F0.021432619120320653
ssS'MCCLELLAN GEORGE'
p160
(dp161
g3
F0.4855720075888425
sg4
F-0.09546385640141707
sg5
F-0.14531952619422533
sg6
F-0.332792686200731
sg7
F-0.07549391644675167
sg8
F0.2842149135354813
sg9
F0.09327387448394654
sg10
F-0.7777434649485017
sg11
F-0.310918481332283
sg12
F0.47413688141247184
sg13
F-0.32269704635907404
sg14
F-0.39053083570713226
sg15
F-0.2025709792155381
sg16
F-0.5408019274784729
sg17
I00
sg18
F-0.46913488763141326
sg19
F4.164731395720823
sg20
F-0.20645320149120835
sg21
F-0.10361405950188231
ssS'HERMANN ROBERT J'
p162
(dp163
g3
F0.48143127403319574
sg4
F0.058513196891655225
sg5
F-0.16652374576289744
sg6
F-0.332792686200731
sg7
F-0.07792067170194543
sg8
F0.0949941427918103
sg9
F-0.18785074756421374
sg10
F-0.4698580389808247
sg11
F-0.35557191598065546
sg12
F-0.024235824434650655
sg13
F-0.38737141596879066
sg14
F0.07498971408123573
sg15
F0.17232050916341995
sg16
F0.014880131953519712
sg17
I00
sg18
F-0.24561577895096245
sg19
F0.2677227799880732
sg20
F-0.18650845234925428
sg21
F0.021432619120320653
ssS'SCRIMSHAW MATTHEW'
p164
(dp165
g3
F-0.9687253898692534
sg4
F0.058513196891655225
sg5
F-0.16652374576289744
sg6
F-0.332792686200731
sg7
F-0.22572934225677338
sg8
F-0.5672785548110381
sg9
F0.3199872793614952
sg10
F-0.4698580389808247
sg11
F-0.34097764701773975
sg12
F-0.024235824434650655
sg13
F-0.27148829111694134
sg14
F0.07498971408123573
sg15
F-0.2555771877565033
sg16
F0.014880131953519712
sg17
I00
sg18
F-0.46913488763141326
sg19
F-0.7768524870816949
sg20
F-0.42897315969434907
sg21
F0.021432619120320653
ssS'GATHMANN WILLIAM D'
p166
(dp167
g3
F-0.9687253898692534
sg4
F0.058513196891655225
sg5
F-0.16652374576289744
sg6
F-0.332792686200731
sg7
F-0.22572934225677338
sg8
F-0.5672785548110381
sg9
F0.3199872793614952
sg10
F-0.4698580389808247
sg11
F-0.15168666622438623
sg12
F-0.024235824434650655
sg13
F-0.07008870038414336
sg14
F0.07498971408123573
sg15
F-0.2555771877565033
sg16
F0.014880131953519712
sg17
I00
sg18
F-0.46913488763141326
sg19
F-0.7768524870816949
sg20
F-0.2957863665130784
sg21
F0.021432619120320653
ssS'HAEDICKE MARK E'
p168
(dp169
g3
F1.09681053213919
sg4
F1.2300522886067244
sg5
F0.3319081309874762
sg6
F3.5728051358075374
sg7
F0.21390103371188163
sg8
F0.52074087696507
sg9
F-1.374893116187234
sg10
F-0.5993719217495643
sg11
F-0.3340277898907125
sg12
F0.9330836081613142
sg13
F-0.30203767065347853
sg14
F1.030598881577018
sg15
F-0.2017541079923604
sg16
F0.3935608615817536
sg17
I00
sg18
F0.9961759219984974
sg19
F0.8684988274629867
sg20
F-0.16454531638726386
sg21
F2.3588436118276532
ssS'BOWEN JR RAYMOND M'
p170
(dp171
g3
F0.5694246225797258
sg4
F-0.028749136520212593
sg5
F1.2954107529682313
sg6
F-0.332792686200731
sg7
F0.07839417360828352
sg8
F0.7099616477087409
sg9
F0.3184764612313912
sg10
F2.375436547338723
sg11
F-0.4219907253575555
sg12
F0.6246908341025682
sg13
F-0.425353795189256
sg14
F-0.4070555998615991
sg15
F-0.25391159246999884
sg16
F-0.3110405859062861
sg17
I01
sg18
F0.9826857987259366
sg19
F0.6468260315767662
sg20
F-0.3018188257967562
sg21
F1.5893255895371734
ssS'GILLIS JOHN'
p172
(dp173
g3
F-0.9687253898692534
sg4
F0.058513196891655225
sg5
F-0.16652374576289744
sg6
F-0.332792686200731
sg7
F-0.22572934225677338
sg8
F-0.5672785548110381
sg9
F0.3199872793614952
sg10
F-0.4698580389808247
sg11
F-0.44855556730663565
sg12
F-0.024235824434650655
sg13
F-0.4233679751172654
sg14
F0.07498971408123573
sg15
F-0.2555771877565033
sg16
F0.014880131953519712
sg17
I00
sg18
F-0.46913488763141326
sg19
F-0.7768524870816949
sg20
F-0.3907151192899705
sg21
F0.021432619120320653
ssS'FITZGERALD JAY L'
p174
(dp175
g3
F0.1308160404533275
sg4
F-0.5683190639804803
sg5
F-1.0549458855476357
sg6
F-0.332792686200731
sg7
F-0.06454674625181275
sg8
F-0.23614220600961391
sg9
F0.3199872793614952
sg10
F2.06011854611
sg11
F-0.2034269214427192
sg12
F-0.4316151242876245
sg13
F-0.2907521435668047
sg14
F-0.4153179819388325
sg15
F0.037688828963039156
sg16
F-0.4182625453066399
sg17
I00
sg18
F0.3599958348721982
sg19
F-0.2612288622713186
sg20
F0.05369168652917134
sg21
F-1.084749537922244
ssS'MORAN MICHAEL P'
p176
(dp177
g3
F-0.9687253898692534
sg4
F-0.7228163100211643
sg5
F-1.0887506155747486
sg6
F-0.332792686200731
sg7
F-0.22572934225677338
sg8
F-0.5672785548110381
sg9
F0.3199872793614952
sg10
F-0.7777434649485017
sg11
F-0.42692555971051777
sg12
F-1.1552454130238945
sg13
F-0.4132928198484171
sg14
F-0.413064605008678
sg15
F-0.2555771877565033
sg16
F-0.5408019274784729
sg17
I00
sg18
F-0.46913488763141326
sg19
F-0.7768524870816949
sg20
F-0.34744970383543416
sg21
F-1.103987488479506
ssS'REDMOND BRIAN L'
p178
(dp179
g3
F-0.4340738731641477
sg4
F-0.13818468579903045
sg5
F2.774092215243336
sg6
F-0.332792686200731
sg7
F-0.21302379409901803
sg8
F-0.5672785548110381
sg9
F0.3199872793614952
sg10
F0.48067498339418235
sg11
F0.7973141933966286
sg12
F-0.018805899169618116
sg13
F1.0957724281668177
sg14
F-0.2613372250449368
sg15
F-0.2555771877565033
sg16
F0.2097517883240041
sg17
I00
sg18
F-0.46913488763141326
sg19
F-0.45955062596566565
sg20
F-0.2366260917919321
sg21
F2.820554425201941
ssS'BAZELIDES PHILIP J'
p180
(dp181
g3
F-0.5225309838689102
sg4
F0.058513196891655225
sg5
F-0.16652374576289744
sg6
F0.9066538630856184
sg7
F-0.12774138064841098
sg8
F-0.5672785548110381
sg9
F0.3199872793614952
sg10
F-0.4698580389808247
sg11
F-0.20687415401864664
sg12
F-0.024235824434650655
sg13
F-0.10131021610336587
sg14
F0.07498971408123573
sg15
F-0.2546791431664941
sg16
F0.014880131953519712
sg17
I00
sg18
F-0.3294354447061315
sg19
F-0.7768524870816949
sg20
F-0.42897315969434907
sg21
F0.021432619120320653
ssS'BELDEN TIMOTHY N'
p182
(dp183
g3
F0.2127583970305392
sg4
F3.5603857497203752
sg5
F-0.1859599979266344
sg6
F3.5483418271367215
sg7
F0.4010244608899556
sg8
F4.399765731106471
sg9
F-3.913992565453827
sg10
F0.4887404077552926
sg11
F-0.28492352224016326
sg12
F5.393851528995301
sg13
F-0.23227447251897623
sg14
F-0.06379118083471927
sg15
F-0.03908268086204767
sg16
F1.1134797318412724
sg17
I01
sg18
F-0.46913488763141326
sg19
F-0.40196149384398727
sg20
F-0.3494842337142661
sg21
F3.2822652385762288
ssS'DURAN WILLIAM D'
p184
(dp185
g3
F0.19450052253917421
sg4
F-0.5870460028945026
sg5
F2.621393294126601
sg6
F-0.332792686200731
sg7
F0.012738265749641315
sg8
F0.14229933547772805
sg9
F0.3199872793614952
sg10
F0.6411875405807492
sg11
F-0.2002863401183943
sg12
F-0.5821690769777209
sg13
F-0.13124478752825441
sg14
F-0.418322484512372
sg15
F-0.25396605055154403
sg16
F-0.49484965916403556
sg17
I00
sg18
F1.17778072741919
sg19
F-0.21986232513215354
sg20
F-0.3336075353888013
sg21
F0.9352352705902655
ssS'THORN TERENCE H'
p186
(dp187
g3
F0.2574451935630787
sg4
F-0.9604143474928224
sg5
F-1.0887506155747486
sg6
F-0.30276838269220985
sg7
F-0.12189527232849838
sg8
F-0.5672785548110381
sg9
F0.3199872793614952
sg10
F-0.7777434649485017
sg11
F0.3068433153207248
sg12
F-1.2208092311308718
sg13
F0.4765962416215207
sg14
F-0.3965398408542111
sg15
F0.18278879095176495
sg16
F-0.5408019274784729
sg17
I00
sg18
F-0.17110940939081218
sg19
F0.2199406493604841
sg20
F-0.2446799647191705
sg21
F-1.103987488479506
ssS'FASTOW ANDREW S'
p188
(dp189
g3
F1.4643586054726163
sg4
F0.29847068003998084
sg5
F0.19129785313275313
sg6
F-0.332792686200731
sg7
F0.05042576802751185
sg8
F0.6626564550228232
sg9
F-2.19391070781891
sg10
F0.48292864840638094
sg11
F-0.17578265431751394
sg12
F0.8553783422567482
sg13
F-0.425353795189256
sg14
F-0.20173004005918133
sg15
F0.029520116731262293
sg16
F0.4810889917044913
sg17
I01
sg18
F2.1178082205035205
sg19
F0.43111520135655607
sg20
F0.47625491591552754
sg21
F0.7772092481556134
ssS'FOY JOE'
p190
(dp191
g3
F-0.9687253898692534
sg4
F-1.0827246672750306
sg5
F-1.0887506155747486
sg6
F-0.003776209401547098
sg7
F-0.2050235446129962
sg8
F-0.5672785548110381
sg9
F0.3199872793614952
sg10
F-0.7777434649485017
sg11
F-0.4074037994230488
sg12
F-1.3070135104937497
sg13
F-0.3557834462548491
sg14
F-0.4175713588689871
sg15
F-0.2555771877565033
sg16
F-0.5408019274784729
sg17
I00
sg18
F-0.46913488763141326
sg19
F-0.7768524870816949
sg20
F-0.42897315969434907
sg21
F-1.103987488479506
ssS'CALGER CHRISTOPHER F'
p192
(dp193
g3
F0.35735281279372294
sg4
F0.4043113258665533
sg5
F1.3348845783321535
sg6
F-0.332792686200731
sg7
F-0.03897821045819308
sg8
F0.6153512623369055
sg9
F-0.15611087088135692
sg10
F0.2076252888912559
sg11
F-0.44210870762562593
sg12
F1.3471069780590794
sg13
F-0.425353795189256
sg14
F-0.3191738995855708
sg15
F-0.2550778174238437
sg16
F-0.15786635819149486
sg17
I01
sg18
F0.0901158827966395
sg19
F-0.003136232642731459
sg20
F-0.36539624498084633
sg21
F2.724364672415631
ssS'LEWIS RICHARD'
p194
(dp195
g3
F-0.9687253898692534
sg4
F-0.5589555945234691
sg5
F-0.7563847825350685
sg6
F-0.332792686200731
sg7
F-0.22572934225677338
sg8
F-0.5672785548110381
sg9
F0.3199872793614952
sg10
F-0.7777434649485017
sg11
F-0.32646399173627083
sg12
F-0.412188807811483
sg13
F-0.25307038221707623
sg14
F-0.407806725504984
sg15
F-0.2555771877565033
sg16
F-0.5408019274784729
sg17
I00
sg18
F-0.46913488763141326
sg19
F-0.7768524870816949
sg20
F-0.42897315969434907
sg21
F-0.9116079829068862
ssS'KAMINSKI WINCENTY J'
p196
(dp197
g3
F0.5501011993200411
sg4
F1.5800119595625162
sg5
F-0.8071594891322743
sg6
F-0.332792686200731
sg7
F-0.10191709114397024
sg8
F-0.18883701332369615
sg9
F0.3199872793614952
sg10
F-0.7101941325583284
sg11
F-0.3064207168007095
sg12
F-0.6015953934538624
sg13
F-0.25316498366292134
sg14
F10.364837251920642
sg15
F-0.25077973902566475
sg16
F2.078477366444457
sg17
I00
sg18
F0.012870659091458098
sg19
F1.0286942527496958
sg20
F-0.36539624498084633
sg21
F-0.31523151563176427
ssS'COX DAVID'
p198
(dp199
g3
F0.7664517671135456
sg4
F-1.0563899094271867
sg5
F-1.0887506155747486
sg6
F-0.332792686200731
sg7
F-0.10025702741386587
sg8
F0.18960452816364579
sg9
F0.24517185575190412
sg10
F-0.08977691681310723
sg11
F-0.38310811288340635
sg12
F-1.2232375206903896
sg13
F-0.4015411730039497
sg14
F-0.40254884600129
sg15
F-0.2550695973360633
sg16
F-0.47953223639255643
sg17
I00
sg18
F-0.46913488763141326
sg19
F-0.17501797468781582
sg20
F-0.23824191108325343
sg21
F-1.103987488479506
ssS'OVERDYKE JR JERE C'
p200
(dp201
g3
F-0.4445582105270452
sg4
F0.058513196891655225
sg5
F-0.16652374576289744
sg6
F-0.332792686200731
sg7
F-0.19727323884258302
sg8
F-0.5672785548110381
sg9
F0.3199872793614952
sg10
F-0.4698580389808247
sg11
F0.7042923902491319
sg12
F-0.024235824434650655
sg13
F0.6415110730249302
sg14
F0.07498971408123573
sg15
F-0.2553963458253344
sg16
F0.014880131953519712
sg17
I00
sg18
F-0.2667219433199618
sg19
F-0.3700131343511282
sg20
F0.6006593806414088
sg21
F0.021432619120320653
ssS'PEREIRA PAULO V. FERRAZ'
p202
(dp203
g3
F-0.9687253898692534
sg4
F0.058513196891655225
sg5
F-0.16652374576289744
sg6
F-0.332792686200731
sg7
F-0.22254614840921802
sg8
F-0.5672785548110381
sg9
F0.1363494214106808
sg10
F-0.4698580389808247
sg11
F-0.46222653026264404
sg12
F-0.024235824434650655
sg13
F-0.425353795189256
sg14
F0.07498971408123573
sg15
F-0.2555771877565033
sg16
F0.014880131953519712
sg17
I00
sg18
F-0.46913488763141326
sg19
F-0.17326826737279108
sg20
F-0.42897315969434907
sg21
F0.021432619120320653
ssS'STABLER FRANK'
p204
(dp205
g3
F0.35355990085675054
sg4
F0.058513196891655225
sg5
F-0.16652374576289744
sg6
F-0.332792686200731
sg7
F-0.0990387511628546
sg8
F-0.09422662795186068
sg9
F0.3199872793614952
sg10
F-0.4698580389808247
sg11
F-0.380537893309199
sg12
F-0.024235824434650655
sg13
F-0.425353795189256
sg14
F0.07498971408123573
sg15
F0.11028967175054331
sg16
F0.014880131953519712
sg17
I00
sg18
F-0.46913488763141326
sg19
F-0.42012820806541695
sg20
F-0.1708184081411135
sg21
F0.021432619120320653
ssS'SKILLING JEFFREY K'
p206
(dp207
g3
F5.166505662905244
sg4
F1.006499455320583
sg5
F-0.32105610141063934
sg6
F-0.332792686200731
sg7
F0.7634184693268762
sg8
F4.730903026011749
sg9
F0.3199872793614952
sg10
F0.7988465411951106
sg11
F3.703133791291667
sg12
F1.1698418402142885
sg13
F3.474170471445185
sg14
F-0.34621442274742564
sg15
F-0.23284659002174002
sg16
F-0.08127924433409923
sg17
I01
sg18
F2.3919097034783574
sg19
F-0.14315602049446413
sg20
F3.0234580738602617
sg21
F0.5889521605595495
ssS'BLAKE JR. NORMAN P'
p208
(dp209
g3
F-0.9687253898692534
sg4
F0.058513196891655225
sg5
F-0.16652374576289744
sg6
F-0.332792686200731
sg7
F-0.22558363669056397
sg8
F-0.5672785548110381
sg9
F0.11361641487679923
sg10
F-0.4698580389808247
sg11
F-0.46222653026264404
sg12
F-0.024235824434650655
sg13
F-0.425353795189256
sg14
F0.07498971408123573
sg15
F-0.2555771877565033
sg16
F0.014880131953519712
sg17
I00
sg18
F-0.46913488763141326
sg19
F-0.7492243925642055
sg20
F-0.42897315969434907
sg21
F0.021432619120320653
ssS'SHERRICK JEFFREY B'
p210
(dp211
g3
F-0.9687253898692534
sg4
F-0.7573441036438929
sg5
F0.9243127855830401
sg6
F-0.332792686200731
sg7
F-0.22572934225677338
sg8
F-0.5672785548110381
sg9
F0.3199872793614952
sg10
F3.3087778309757407
sg11
F-0.169707734988526
sg12
F-0.6015953934538624
sg13
F-0.13639013383332013
sg14
F-0.40855785114836884
sg15
F-0.2555771877565033
sg16
F-0.2650883175918487
sg17
I00
sg18
F-0.46913488763141326
sg19
F-0.7768524870816949
sg20
F-0.22415860569586138
sg21
F-0.35370741674628825
ssS'PRENTICE JAMES'
p212
(dp213
g3
F-0.9687253898692534
sg4
F0.058513196891655225
sg5
F-0.16652374576289744
sg6
F0.688801166230651
sg7
F-0.16143798582272562
sg8
F-0.5672785548110381
sg9
F0.3199872793614952
sg10
F-0.4698580389808247
sg11
F-0.28742414267553734
sg12
F-0.024235824434650655
sg13
F-0.24582759828828415
sg14
F0.07498971408123573
sg15
F-0.2555771877565033
sg16
F0.014880131953519712
sg17
I00
sg18
F-0.46913488763141326
sg19
F-0.7768524870816949
sg20
F-0.32363516081782423
sg21
F0.021432619120320653
ssS'GRAY RODNEY'
p214
(dp215
g3
F-0.9322041199084492
sg4
F0.058513196891655225
sg5
F-0.16652374576289744
sg6
F-0.16338327803450928
sg7
F-0.09510037185915995
sg8
F-0.5672785548110381
sg9
F0.3199872793614952
sg10
F-0.4698580389808247
sg11
F-0.46222653026264404
sg12
F-0.024235824434650655
sg13
F-0.425353795189256
sg14
F0.07498971408123573
sg15
F0.44398619021800473
sg16
F0.014880131953519712
sg17
I00
sg18
F0.07569293977718561
sg19
F-0.7768524870816949
sg20
F-0.42897315969434907
sg21
F0.021432619120320653
ssS'PICKERING MARK R'
p216
(dp217
g3
F2.6477195249176355
sg4
F-0.5905573039408818
sg5
F-0.8421040775595561
sg6
F-0.332792686200731
sg7
F-0.06775557243118759
sg8
F-0.28344739869553165
sg9
F0.3199872793614952
sg10
F-0.7777434649485017
sg11
F-0.4576294752164964
sg12
F-0.42554440038883024
sg13
F-0.41952010688637087
sg14
F-0.3770105741262048
sg15
F-0.2555771877565033
sg16
F-0.5408019274784729
sg17
I00
sg18
F-0.46913488763141326
sg19
F-0.0931057507548059
sg20
F-0.42897315969434907
sg21
F-0.969321834578672
ssS'NOLES JAMES L'
p218
(dp219
g3
F-0.9687253898692534
sg4
F0.058513196891655225
sg5
F-0.16652374576289744
sg6
F1.0690432393571068
sg7
F-0.13750843828638096
sg8
F-0.5672785548110381
sg9
F0.3199872793614952
sg10
F-0.4698580389808247
sg11
F-0.40336976309860967
sg12
F-0.024235824434650655
sg13
F-0.425353795189256
sg14
F0.07498971408123573
sg15
F-0.2555771877565033
sg16
F0.014880131953519712
sg17
I00
sg18
F-0.46913488763141326
sg19
F-0.7768524870816949
sg20
F-0.195271610922324
sg21
F0.021432619120320653
ssS'FOWLER PEGGY'
p220
(dp221
g3
F-0.9687253898692534
sg4
F-0.8135249203859599
sg5
F-1.0887506155747486
sg6
F-0.332792686200731
sg7
F-0.22572934225677338
sg8
F-0.5672785548110381
sg9
F0.3199872793614952
sg10
F-0.7777434649485017
sg11
F-0.16136222357062902
sg12
F-1.297300352255679
sg13
F-0.1570304677061331
sg14
F-0.4002954690711354
sg15
F-0.2555771877565033
sg16
F-0.5408019274784729
sg17
I00
sg18
F-0.46913488763141326
sg19
F-0.7768524870816949
sg20
F-0.14638387077163534
sg21
F-1.103987488479506
ssS'WASAFF GEORGE'
p222
(dp223
g3
F0.46670682550931597
sg4
F-0.881995290790354
sg5
F0.6515168862210166
sg6
F1.1720411183531176
sg7
F-0.10788953837938418
sg8
F-0.2597948023525728
sg9
F-0.7379934958400732
sg10
F0.5465921402121325
sg11
F-0.13395692413082144
sg12
F-0.9002750092745375
sg13
F-0.08740988074481061
sg14
F-0.4048022229314445
sg15
F-0.25411298462061876
sg16
F-0.43357996807811905
sg17
I00
sg18
F-0.17110940939081218
sg19
F-0.7768524870816949
sg20
F-0.2331543252097051
sg21
F-0.6807525762197422
ssS'WHITE JR THOMAS E'
p224
(dp225
g3
F0.7844225507450524
sg4
F0.058513196891655225
sg5
F-0.16652374576289744
sg6
F-0.332792686200731
sg7
F-0.005364312274549301
sg8
F-0.14153182063777842
sg9
F0.3199872793614952
sg10
F-0.4698580389808247
sg11
F1.9552457614461671
sg12
F-0.024235824434650655
sg13
F-0.16260709126645412
sg14
F0.07498971408123573
sg15
F0.8597479550411334
sg16
F0.014880131953519712
sg17
I00
sg18
F-0.46913488763141326
sg19
F0.9804800956245698
sg20
F6.556468394334245
sg21
F0.021432619120320653
ssS'ALLEN PHILLIP K'
p226
(dp227
g3
F0.1462637371049269
sg4
F0.5822172455497652
sg5
F-0.576297933509709
sg6
F4.862025485242825
sg7
F0.2851449038286456
sg8
F3.3827050344630933
sg9
F-5.268144477958469
sg10
F-0.6096696328584764
sg11
F-0.18613808031580004
sg12
F0.3988599050674236
sg13
F-0.07499602377942748
sg14
F1.2213847949967718
sg15
F-0.2554210060886756
sg16
F0.4548305526676701
sg17
I00
sg18
F-0.014936608155781187
sg19
F-0.47728531368955834
sg20
F-0.36539624498084633
sg21
F-0.1998038122881923
ssS'SHARP VICTORIA T'
p228
(dp229
g3
F0.4012832353300977
sg4
F0.7191579863585533
sg5
F-0.8465983657886959
sg6
F0.006567385814158311
sg7
F-0.046130884172050704
sg8
F0.0003837574199748104
sg9
F0.3199872793614952
sg10
F-0.5273438757374573
sg11
F-0.383347080568804
sg12
F1.6979948194093848
sg13
F-0.3684160817245421
sg14
F-0.32518290473264966
sg15
F-0.2531101339114094
sg16
F-0.4488973908495982
sg17
I00
sg18
F0.1599343115840651
sg19
F1.7361808451162417
sg20
F-0.3214891429391852
sg21
F-0.6422766751052181
ssS'JAEDICKE ROBERT'
p230
(dp231
g3
F-0.9687253898692534
sg4
F0.058513196891655225
sg5
F-0.16652374576289744
sg6
F-0.332792686200731
sg7
F-0.21618841874618858
sg8
F-0.5672785548110381
sg9
F0.27464459838598543
sg10
F-0.4698580389808247
sg11
F-0.39330582340195097
sg12
F-0.024235824434650655
sg13
F-0.3378930366375978
sg14
F0.07498971408123573
sg15
F-0.2555771877565033
sg16
F0.014880131953519712
sg17
I00
sg18
F-0.46913488763141326
sg19
F-0.7768524870816949
sg20
F-0.4067295380857852
sg21
F0.021432619120320653
ssS'WINOKUR JR. HERBERT S'
p232
(dp233
g3
F-0.9687253898692534
sg4
F0.058513196891655225
sg5
F-0.16652374576289744
sg6
F-0.332792686200731
sg7
F-0.21604692827454505
sg8
F-0.5672785548110381
sg9
F0.27464459838598543
sg10
F-0.4698580389808247
sg11
F-0.46222653026264404
sg12
F-0.024235824434650655
sg13
F-0.425353795189256
sg14
F0.07498971408123573
sg15
F-0.2555771877565033
sg16
F0.014880131953519712
sg17
I00
sg18
F-0.46913488763141326
sg19
F-0.7463298150307077
sg20
F-0.42897315969434907
sg21
F0.021432619120320653
ssS'BROWN MICHAEL'
p234
(dp235
g3
F-0.9687253898692534
sg4
F-0.24644980139572192
sg5
F-0.8119431088655237
sg6
F-0.332792686200731
sg7
F-0.22011438060913513
sg8
F-0.5672785548110381
sg9
F0.3199872793614952
sg10
F-0.6393111717261357
sg11
F-0.46222653026264404
sg12
F-0.3854776226567885
sg13
F-0.425353795189256
sg14
F-0.3965398408542111
sg15
F-0.2555771877565033
sg16
F-0.5254845047069938
sg17
I00
sg18
F-0.46913488763141326
sg19
F0.2878336134484193
sg20
F-0.42897315969434907
sg21
F-0.8538941312351002
ssS'BADUM JAMES P'
p236
(dp237
g3
F-0.9687253898692534
sg4
F0.058513196891655225
sg5
F-0.16652374576289744
sg6
F-0.008799568996153768
sg7
F-0.20494254644444665
sg8
F-0.5672785548110381
sg9
F0.3199872793614952
sg10
F-0.4698580389808247
sg11
F-0.42107093123380024
sg12
F-0.024235824434650655
sg13
F-0.37312711218401484
sg14
F0.07498971408123573
sg15
F-0.2555771877565033
sg16
F0.014880131953519712
sg17
I00
sg18
F-0.46913488763141326
sg19
F-0.7015502685610006
sg20
F-0.42897315969434907
sg21
F0.021432619120320653
ssS'HUGHES JAMES A'
p238
(dp239
g3
F-0.9687253898692534
sg4
F-0.6953111184911941
sg5
F0.451503842962406
sg6
F-0.332792686200731
sg7
F-0.22572934225677338
sg8
F-0.5672785548110381
sg9
F0.3199872793614952
sg10
F0.05692183242164599
sg11
F-0.28369611907849135
sg12
F-0.5943105247753093
sg13
F-0.2724183023329475
sg14
F-0.4017977203579051
sg15
F-0.2555771877565033
sg16
F-0.4642148136210773
sg17
I00
sg18
F-0.46913488763141326
sg19
F-0.7768524870816949
sg20
F-0.2456344230704599
sg21
F-0.4306592189753362
ssS'REYNOLDS LAWRENCE'
p240
(dp241
g3
F-0.5469281859787807
sg4
F0.058513196891655225
sg5
F-0.16652374576289744
sg6
F-0.23981075265947996
sg7
F-0.18079016850348464
sg8
F-0.4726681694392026
sg9
F-0.042754168442582625
sg10
F-0.4698580389808247
sg11
F0.21171837305825508
sg12
F-0.024235824434650655
sg13
F0.4174847206292612
sg14
F0.07498971408123573
sg15
F-0.04796654073071972
sg16
F0.014880131953519712
sg17
I00
sg18
F-0.23630248275594365
sg19
F-0.5952069461922749
sg20
F-0.3273309123408401
sg21
F0.021432619120320653
ssS'DIMICHELE RICHARD G'
p242
(dp243
g3
F0.4821213962924702
sg4
F0.058513196891655225
sg5
F-0.16652374576289744
sg6
F-0.332792686200731
sg7
F0.044053912101613
sg8
F0.37882529890731675
sg9
F0.3199872793614952
sg10
F-0.4698580389808247
sg11
F0.86554976378055
sg12
F-0.024235824434650655
sg13
F1.2340720442301736
sg14
F0.07498971408123573
sg15
F0.12941987103748942
sg16
F0.014880131953519712
sg17
I00
sg18
F0.5662980116746895
sg19
F-0.0032658405919925504
sg20
F-0.36539624498084633
sg21
F0.021432619120320653
ssS'BHATNAGAR SANJAY'
p244
(dp245
g3
F-0.9687253898692534
sg4
F-0.8100136193395807
sg5
F-1.0887506155747486
sg6
F-0.332792686200731
sg7
F-0.21002367206139116
sg8
F-0.5672785548110381
sg9
F0.3199872793614952
sg10
F-0.5820288434961911
sg11
F2.0050773081713134
sg12
F-0.7472927670249234
sg13
F2.7056684347920035
sg14
F-0.4055533485748294
sg15
F-0.2555771877565033
sg16
F-0.5254845047069938
sg17
I00
sg18
F-0.46913488763141326
sg19
F2.2011925657401616
sg20
F0.8849154403847674
sg21
F-1.103987488479506
ssS'CARTER REBECCA C'
p246
(dp247
g3
F0.4767163587578327
sg4
F-0.9334943728039153
sg5
F1.852260896784062
sg6
F-0.332792686200731
sg7
F-0.17132534453803502
sg8
F-0.28344739869553165
sg9
F0.030171372223949174
sg10
F1.8709277453727666
sg11
F-0.46222653026264404
sg12
F-1.0714694232205344
sg13
F-0.425353795189256
sg14
F-0.4160691075822174
sg15
F-0.255022331831326
sg16
F-0.43357996807811905
sg17
I00
sg18
F-0.35737533329118787
sg19
F-0.7768524870816949
sg20
F-0.27394884372734113
sg21
F-0.5460869223189082
ssS'BUCHANAN HAROLD G'
p248
(dp249
g3
F0.40057102915852644
sg4
F-0.47936610413887437
sg5
F-1.0887506155747486
sg6
F-0.332792686200731
sg7
F-0.10558353988742887
sg8
F-0.09422662795186068
sg9
F0.3199872793614952
sg10
F-0.7777434649485017
sg11
F-0.30028002947814514
sg12
F-1.281516470118814
sg13
F-0.2581373328914309
sg14
F-0.33344528680988306
sg15
F-0.2543287619248544
sg16
F-0.5408019274784729
sg17
I00
sg18
F-0.014936608155781187
sg19
F-0.7638916921555857
sg20
F-0.3336075353888013
sg21
F-1.103987488479506
ssS'YEAP SOON'
p250
(dp251
g3
F-0.9687253898692534
sg4
F0.058513196891655225
sg5
F-0.16652374576289744
sg6
F-0.332792686200731
sg7
F-0.2194526107622935
sg8
F-0.5672785548110381
sg9
F0.3199872793614952
sg10
F-0.4698580389808247
sg11
F-0.43145636786993186
sg12
F-0.024235824434650655
sg13
F-0.3863062887691042
sg14
F0.07498971408123573
sg15
F-0.2555771877565033
sg16
F0.014880131953519712
sg17
I00
sg18
F-0.46913488763141326
sg19
F0.4133157096580328
sg20
F-0.42897315969434907
sg21
F0.021432619120320653
ssS'MURRAY JULIA H'
p252
(dp253
g3
F0.2971465468946195
sg4
F0.16671328839489524
sg5
F-0.9299670843890036
sg6
F-0.332792686200731
sg7
F-0.13320300399103133
sg8
F-0.18883701332369615
sg9
F0.3199872793614952
sg10
F-0.5254890639655236
sg11
F-0.36685320208268685
sg12
F-0.8298546120485247
sg13
F-0.3442278897735039
sg14
F-0.39353533828067166
sg15
F-0.2552381091355616
sg16
F-0.5101670819355146
sg17
I00
sg18
F-0.2828689637310376
sg19
F0.4669517993272479
sg20
F-0.32960102998397023
sg21
F-0.8923700323496241
ssS'GARLAND C KEVIN'
p254
(dp255
g3
F0.3118433905281283
sg4
F-0.9937717074334246
sg5
F0.425183705256713
sg6
F-0.332792686200731
sg7
F-0.04727488362152285
sg8
F0.23690972084956352
sg9
F0.3199872793614952
sg10
F2.7050871849869322
sg11
F-0.31917268378822444
sg12
F-1.0933240292561934
sg13
F-0.2964677319919003
sg14
F-0.39428646392405653
sg15
F-0.1930901354718142
sg16
F-0.1272315126485366
sg17
I00
sg18
F0.0901158827966395
sg19
F0.2687596435821619
sg20
F-0.2978577227447878
sg21
F-0.9116079829068862
ssS'DODSON KEITH'
p256
(dp257
g3
F0.2514273274622054
sg4
F-1.0130838631885102
sg5
F0.709046390412612
sg6
F-0.332792686200731
sg7
F-0.18928119170274346
sg8
F-0.5010512850507532
sg9
F0.3199872793614952
sg10
F0.4384831112194276
sg11
F-0.46222653026264404
sg12
F-1.1710292951607595
sg13
F-0.425353795189256
sg14
F-0.41682023322560224
sg15
F-0.25478189426374914
sg16
F-0.49484965916403556
sg17
I00
sg18
F-0.46913488763141326
sg19
F-0.1684727732501307
sg20
F-0.42897315969434907
sg21
F-0.9116079829068862
ssS'YEAGER F SCOTT'
p258
(dp259
g3
F-0.09418589998244156
sg4
F0.29847068003998084
sg5
F0.19129785313275313
sg6
F-0.332792686200731
sg7
F-0.18468343490317699
sg8
F-0.5672785548110381
sg9
F0.3199872793614952
sg10
F0.48292864840638094
sg11
F1.4349498964386334
sg12
F0.8553783422567482
sg13
F1.2577319266078413
sg14
F-0.20173004005918133
sg15
F-0.10355693936764954
sg16
F0.4810889917044913
sg17
I01
sg18
F-0.46913488763141326
sg19
F0.38847418604965694
sg20
F1.3751175816540673
sg21
F0.7772092481556134
ssS'HIRKO JOSEPH'
p260
(dp261
g3
F-0.9687253898692534
sg4
F0.29847068003998084
sg5
F0.19129785313275313
sg6
F-0.314221642567913
sg7
F-0.21535189335707547
sg8
F-0.5672785548110381
sg9
F0.3199872793614952
sg10
F0.48292864840638094
sg11
F4.448992643336247
sg12
F0.8553783422567482
sg13
F5.80701052464598
sg14
F-0.20173004005918133
sg15
F-0.2526426164188989
sg16
F0.4810889917044913
sg17
I01
sg18
F-0.46913488763141326
sg19
F0.9075756241652058
sg20
F-0.42897315969434907
sg21
F0.7772092481556134
ssS'DIETRICH JANET R'
p262
(dp263
g3
F0.41207122648707595
sg4
F0.38909568799891014
sg5
F2.6634166970769435
sg6
F-0.332792686200731
sg7
F-0.0650472032904038
sg8
F0.0003837574199748104
sg9
F0.3199872793614952
sg10
F0.483528539966388
sg11
F-0.1645007296912731
sg12
F0.9998615710480505
sg13
F-0.11136227808564816
sg14
F-0.38001507669974427
sg15
F-0.2550911750664869
sg16
F-0.3263580086777652
sg17
I00
sg18
F0.3599958348721982
sg19
F-0.7017878831346459
sg20
F-0.2700306206752985
sg21
F4.763587431485402
ssS'DERRICK JR. JAMES V'
p264
(dp265
g3
F1.7496661894128243
sg4
F0.16027590314320006
sg5
F-0.16025976388095536
sg6
F-0.332792686200731
sg7
F-0.1629607741757523
sg8
F0.18960452816364579
sg9
F-2.008812815540684
sg10
F-0.6528650486202947
sg11
F0.9476210363665257
sg12
F0.39157503638887053
sg13
F1.363750571787585
sg14
F0.25543721760384513
sg15
F-0.24788935065988008
sg16
F-0.23445347204889047
sg17
I00
sg18
F0.2520867697108414
sg19
F0.3274936459223133
sg20
F0.4727074787451962
sg21
F0.12724134718526162
ssS'PAI LOU L'
p266
(dp267
g3
F0.4771028272230264
sg4
F0.058513196891655225
sg5
F-0.16652374576289744
sg6
F-0.332792686200731
sg7
F0.13009105532246035
sg8
F0.37882529890731675
sg9
F0.3199872793614952
sg10
F-0.4698580389808247
sg11
F3.3398547009093456
sg12
F-0.024235824434650655
sg13
F2.68700683094706
sg14
F0.07498971408123573
sg15
F1.6242099535529066
sg16
F0.014880131953519712
sg17
I00
sg18
F-0.46913488763141326
sg19
F-0.08459482875332755
sg20
F3.8357016263369403
sg21
F0.021432619120320653
ssS'BAY FRANKLIN R'
p268
(dp269
g3
F0.3544929461512896
sg4
F0.058513196891655225
sg5
F-0.16652374576289744
sg6
F0.1386880789211718
sg7
F-0.13143699328940645
sg8
F-0.18883701332369615
sg9
F-0.045730462021815084
sg10
F-0.4698580389808247
sg11
F-0.4521675391286088
sg12
F-0.024235824434650655
sg13
F-0.425353795189256
sg14
F0.07498971408123573
sg15
F-0.2555062894993973
sg16
F0.014880131953519712
sg17
I00
sg18
F-0.46913488763141326
sg19
F2.012785810164288
sg20
F-0.3554233659392819
sg21
F0.021432619120320653
ssS'HAYSLETT RODERICK J'
p270
(dp271
g3
F-0.9687253898692534
sg4
F0.4341573847607763
sg5
F-0.6706898546505453
sg6
F-0.332792686200731
sg7
F-0.22572934225677338
sg8
F-0.5672785548110381
sg9
F0.3199872793614952
sg10
F-0.5744658845145278
sg11
F-0.40688835075494645
sg12
F-0.6161651308109685
sg13
F-0.425353795189256
sg14
F0.36960831539834343
sg15
F-0.2555771877565033
sg16
F0.041260137837733746
sg17
I00
sg18
F-0.46913488763141326
sg19
F-0.7768524870816949
sg20
F-0.2540918724675881
sg21
F-0.4306592189753362
ssS'FUGH JOHN L'
p272
(dp273
g3
F-0.9687253898692534
sg4
F0.058513196891655225
sg5
F-0.16652374576289744
sg6
F-0.24121186268694864
sg7
F-0.21996594092753163
sg8
F-0.5672785548110381
sg9
F0.3199872793614952
sg10
F-0.4698580389808247
sg11
F-0.4340711245077504
sg12
F-0.024235824434650655
sg13
F-0.38962442941780406
sg14
F0.07498971408123573
sg15
F-0.2555771877565033
sg16
F0.014880131953519712
sg17
I00
sg18
F-0.46913488763141326
sg19
F-0.7768524870816949
sg20
F-0.42897315969434907
sg21
F0.021432619120320653
ssS'FALLON JAMES B'
p274
(dp275
g3
F0.7128982797938479
sg4
F-0.0890264711497219
sg5
F-0.3315246629674226
sg6
F-0.332792686200731
sg7
F0.19308473223759381
sg8
F1.7979810794848492
sg9
F0.3199872793614952
sg10
F2.0222803859625533
sg11
F-0.08990322334620261
sg12
F0.6380464266799155
sg13
F-0.23488340618287157
sg14
F-0.37100156897912595
sg15
F0.15694894501406376
sg16
F0.02594271506625462
sg17
I00
sg18
F0.08868983088325821
sg19
F1.295233000405131
sg20
F0.2733215327373137
sg21
F-0.29599356507450225
ssS'KOENIG MARK E'
p276
(dp277
g3
F0.7424796803153881
sg4
F0.2732227534683971
sg5
F-0.3823542182769347
sg6
F-0.332792686200731
sg7
F-0.044888000882492736
sg8
F0.0949941427918103
sg9
F0.3199872793614952
sg10
F0.6179263765556795
sg11
F-0.1557261300046059
sg12
F1.4478809947790632
sg13
F-0.28927822468036146
sg14
F-0.38151732798651394
sg15
F-0.10097994184849275
sg16
F-0.3110405859062861
sg17
I01
sg18
F-0.02209667027051163
sg19
F1.9668829948009847
sg20
F0.20076655498052492
sg21
F-0.08437610894462032
ssS'SAVAGE FRANK'
p278
(dp279
g3
F-0.9687253898692534
sg4
F0.058513196891655225
sg5
F-0.16652374576289744
sg6
F-0.332792686200731
sg7
F-0.22530213672644867
sg8
F-0.5672785548110381
sg9
F0.1000136105841463
sg10
F-0.4698580389808247
sg11
F-0.46222653026264404
sg12
F-0.024235824434650655
sg13
F-0.425353795189256
sg14
F0.07498971408123573
sg15
F-0.2555771877565033
sg16
F0.014880131953519712
sg17
I00
sg18
F-0.46913488763141326
sg19
F-0.7768524870816949
sg20
F-0.42897315969434907
sg21
F0.021432619120320653
ssS'IZZO LAWRENCE L'
p280
(dp281
g3
F-0.4979295055702944
sg4
F-0.825814474048287
sg5
F0.6974477000514032
sg6
F-0.332792686200731
sg7
F-0.00021084652113648026
sg8
F-0.5672785548110381
sg9
F0.3199872793614952
sg10
F0.7158681198191308
sg11
F0.4668230019089744
sg12
F-0.7788605312986534
sg13
F0.013250919378922046
sg14
F-0.413064605008678
sg15
F1.3408964081134889
sg16
F-0.4642148136210773
sg17
I00
sg18
F-0.00347007788047406
sg19
F-0.17000646731638694
sg20
F1.414769978761915
sg21
F-0.5653248728761702
ssS'TILNEY ELIZABETH A'
p282
(dp283
g3
F0.3968222850461476
sg4
F-0.8468822803265621
sg5
F-0.40089784806654105
sg6
F-0.332792686200731
sg7
F-0.18022990269064815
sg8
F-0.28344739869553165
sg9
F-0.7228943830752285
sg10
F2.50820202154029
sg11
F-0.2757707565904318
sg12
F-0.8492809285246662
sg13
F-0.30558269271405525
sg14
F-0.413064605008678
sg15
F-0.09933900682532953
sg16
F-0.3723102769922026
sg17
I00
sg18
F-0.059349855050586764
sg19
F-0.7768524870816949
sg20
F-0.13799856066849997
sg21
F-0.9116079829068862
ssS'MARTIN AMANDA K'
p284
(dp285
g3
F0.9607846743471579
sg4
F-0.2253819951174468
sg5
F-0.9224366744163909
sg6
F-0.17814561947379484
sg7
F0.7320103187374049
sg8
F-0.5672785548110381
sg9
F0.3199872793614952
sg10
F-0.7777434649485017
sg11
F-0.13174140475497995
sg12
F-0.7302947401082996
sg13
F-0.005966341352430833
sg14
F-0.25457709425447306
sg15
F2.640415222872482
sg16
F-0.5408019274784729
sg17
I00
sg18
F7.198217255395832
sg19
F-0.599484008517891
sg20
F-0.42897315969434907
sg21
F-0.9500838840214101
ssS'BUY RICHARD B'
p286
(dp287
g3
F0.8562118286438183
sg4
F0.9456369038500105
sg5
F0.3123369403829287
sg6
F0.8430970503408831
sg7
F0.042635703662409784
sg8
F0.2842149135354813
sg9
F-0.9402889601586903
sg10
F-0.39504982243159065
sg11
F0.08761784069381538
sg12
F1.5231579711241114
sg13
F0.08975067229196605
sg14
F0.3635993102512646
sg15
F0.1560149375400153
sg16
F0.5467350892965448
sg17
I00
sg18
F0.678057566014915
sg19
F-0.7768524870816949
sg20
F0.025886276694938634
sg21
F1.8971327984533652
ssS'GRAMM WENDY L'
p288
(dp289
g3
F-0.9687253898692534
sg4
F0.058513196891655225
sg5
F-0.16652374576289744
sg6
F-0.332792686200731
sg7
F-0.21213942169050853
sg8
F-0.5672785548110381
sg9
F0.3199872793614952
sg10
F-0.4698580389808247
sg11
F-0.46222653026264404
sg12
F-0.024235824434650655
sg13
F-0.425353795189256
sg14
F0.07498971408123573
sg15
F-0.2555771877565033
sg16
F0.014880131953519712
sg17
I00
sg18
F-0.46913488763141326
sg19
F-0.7768524870816949
sg20
F-0.42897315969434907
sg21
F0.021432619120320653
ssS'CAUSEY RICHARD A'
p290
(dp291
g3
F1.3235239757779598
sg4
F-0.008851763924063893
sg5
F-0.11877641699552142
sg6
F-0.332792686200731
sg7
F-0.012837674939837326
sg8
F0.37882529890731675
sg9
F-0.10623392180829623
sg10
F0.6122297649577033
sg11
F-0.06281958047692034
sg12
F0.6149776758644975
sg13
F-0.425353795189256
sg14
F-0.39053083570713226
sg15
F0.06078830313694805
sg16
F-0.35699285422072347
sg17
I01
sg18
F0.052409699289638643
sg19
F-0.11425344780924068
sg20
F0.8332440315330139
sg21
F0.011813643841689656
ssS'TAYLOR MITCHELL S'
p292
(dp293
g3
F0.4955152891004688
sg4
F-0.8041614509289488
sg5
F-1.0887506155747486
sg6
F0.078939968369969
sg7
F-0.10125156188846175
sg8
F0.0003837574199748104
sg9
F0.3199872793614952
sg10
F-0.7777434649485017
sg11
F0.13559942315304732
sg12
F-0.9451983661256147
sg13
F0.21908057225130595
sg14
F-0.4055533485748294
sg15
F-0.2555771877565033
sg16
F-0.5408019274784729
sg17
I00
sg18
F-0.46913488763141326
sg19
F-0.7768524870816949
sg20
F-0.14455365148068508
sg21
F-1.103987488479506
ssS'DONAHUE JR JEFFREY M'
p294
(dp295
g3
F0.5694246225797258
sg4
F-0.6098694596959673
sg5
F5.788186648484187
sg6
F-0.332792686200731
sg7
F-0.12596147152686618
sg8
F0.18960452816364579
sg9
F-0.22412489234462152
sg10
F2.06011854611
sg11
F-0.28966727822343885
sg12
F-0.3721220300794412
sg13
F-0.27019932109571565
sg14
F-0.4108112280785234
sg15
F-0.2546616754799607
sg16
F-0.3723102769922026
sg17
I00
sg18
F-0.46913488763141326
sg19
F1.3026638561627668
sg20
F-0.2700306206752985
sg21
F2.5127472162857494
ssS'GLISAN JR BEN F'
p296
(dp297
g3
F0.5494055560826925
sg4
F-0.6051877249674618
sg5
F0.7959502090296413
sg6
F-0.332792686200731
sg7
F-0.08078887267180804
sg8
F0.0003837574199748104
sg9
F0.3199872793614952
sg10
F1.3506530433453747
sg11
F-0.33794641296428823
sg12
F-0.2482792625440393
sg13
F-0.34741840962802295
sg14
F-0.4153179819388325
sg15
F-0.04975851986684788
sg16
F-0.4488973908495982
sg17
I01
sg18
F-0.3633015699260022
sg19
F1.944439218253939
sg20
F-0.230303561920521
sg21
F-0.10361405950188231
ss.