(dp0
S'METTS MARK'
p1
(dp2
S'salary'
p3
I365788
sS'to_messages'
p4
F807.0
sS'fraction_messages_from_poi'
p5
F0.04708798017348203
sS'deferral_payments'
p6
I0
sS'total_payments'
p7
I1061827
sS'bonus'
p8
I600000
sS'deferred_income'
p9
I0
sS'fraction_messages_to_poi'
p10
F0.034482758620689655
sS'total_stock_value'
p11
I585062
sS'shared_receipt_with_poi'
p12
F702.0
sS'exercised_stock_options'
p13
I0
sS'from_messages'
p14
F29.0
sS'other'
p15
I1740
sS'from_this_person_to_poi'
p16
F1.0
sS'poi'
p17
I00
sS'long_term_incentive'
p18
I0
sS'expenses'
p19
I94299
sS'restricted_stock'
p20
I585062
sS'from_poi_to_this_person'
p21
F38.0
ssS'BAXTER JOHN C'
p22
(dp23
g3
I267102
sg4
F2007.111111111111
sg5
F0.029146368467670505
sg6
I1295738
sg7
I5634343
sg8
I1200000
sg9
I-1386055
sg10
F0.054246017735872565
sg11
I10623258
sg12
F1058.5277777777778
sg13
I6680544
sg14
F668.7638888888889
sg15
I2660303
sg16
F36.27777777777778
sg17
I00
sg18
I1586055
sg19
I11200
sg20
I3942714
sg21
F58.5
ssS'ELLIOTT STEVEN'
p24
(dp25
g3
I170941
sg4
F2007.111111111111
sg5
F0.029146368467670505
sg6
I0
sg7
I211725
sg8
I350000
sg9
I-400729
sg10
F0.054246017735872565
sg11
I6678735
sg12
F1058.5277777777778
sg13
I4890344
sg14
F668.7638888888889
sg15
I12961
sg16
F36.27777777777778
sg17
I00
sg18
I0
sg19
I78552
sg20
I1788391
sg21
F58.5
ssS'CORDES WILLIAM R'
p26
(dp27
g3
I0
sg4
F764.0
sg5
F0.013089005235602094
sg6
I0
sg7
I0
sg8
I0
sg9
I0
sg10
F0.0
sg11
I1038185
sg12
F58.0
sg13
I651850
sg14
F12.0
sg15
I0
sg16
F0.0
sg17
I00
sg18
I0
sg19
I0
sg20
I386335
sg21
F10.0
ssS'HANNON KEVIN P'
p28
(dp29
g3
I243293
sg4
F1045.0
sg5
F0.03062200956937799
sg6
I0
sg7
I288682
sg8
I1500000
sg9
I-3117011
sg10
F0.65625
sg11
I6391065
sg12
F1035.0
sg13
I5538001
sg14
F32.0
sg15
I11350
sg16
F21.0
sg17
I01
sg18
I1617011
sg19
I34039
sg20
I853064
sg21
F32.0
ssS'MORDAUNT KRISTINA M'
p30
(dp31
g3
I267093
sg4
F2007.111111111111
sg5
F0.029146368467670505
sg6
I0
sg7
I628522
sg8
I325000
sg9
I0
sg10
F0.054246017735872565
sg11
I208510
sg12
F1058.5277777777778
sg13
I0
sg14
F668.7638888888889
sg15
I1411
sg16
F36.27777777777778
sg17
I00
sg18
I0
sg19
I35018
sg20
I208510
sg21
F58.5
ssS'MEYER ROCKFORD G'
p32
(dp33
g3
I0
sg4
F232.0
sg5
F0.0
sg6
I1848227
sg7
I1848227
sg8
I0
sg9
I0
sg10
F0.0
sg11
I955873
sg12
F22.0
sg13
I493489
sg14
F28.0
sg15
I0
sg16
F0.0
sg17
I00
sg18
I0
sg19
I0
sg20
I462384
sg21
F0.0
ssS'MCMAHON JEFFREY'
p34
(dp35
g3
I370448
sg4
F2355.0
sg5
F0.024628450106157114
sg6
I0
sg7
I4099771
sg8
I2600000
sg9
I0
sg10
F0.5416666666666666
sg11
I1662855
sg12
F2228.0
sg13
I1104054
sg14
F48.0
sg15
I297353
sg16
F26.0
sg17
I00
sg18
I694862
sg19
I137108
sg20
I558801
sg21
F58.0
ssS'HORTON STANLEY C'
p36
(dp37
g3
I0
sg4
F2350.0
sg5
F0.01872340425531915
sg6
I3131860
sg7
I3131860
sg8
I0
sg9
I0
sg10
F0.013979496738117428
sg11
I7256648
sg12
F1074.0
sg13
I5210569
sg14
F1073.0
sg15
I0
sg16
F15.0
sg17
I00
sg18
I0
sg19
I0
sg20
I2046079
sg21
F44.0
ssS'PIPER GREGORY F'
p38
(dp39
g3
I197091
sg4
F1238.0
sg5
F0.049273021001615507
sg6
I1130036
sg7
I1737629
sg8
I400000
sg9
I-33333
sg10
F0.21621621621621623
sg11
I880290
sg12
F742.0
sg13
I880290
sg14
F222.0
sg15
I778
sg16
F48.0
sg17
I00
sg18
I0
sg19
I43057
sg20
I409554
sg21
F61.0
ssS'HUMPHREY GENE E'
p40
(dp41
g3
I130724
sg4
F128.0
sg5
F0.078125
sg6
I2964506
sg7
I3100224
sg8
I0
sg9
I0
sg10
F1.0
sg11
I2282768
sg12
F119.0
sg13
I2282768
sg14
F17.0
sg15
I0
sg16
F17.0
sg17
I00
sg18
I0
sg19
I4994
sg20
I0
sg21
F10.0
ssS'UMANOFF ADAM S'
p42
(dp43
g3
I288589
sg4
F111.0
sg5
F0.10810810810810811
sg6
I0
sg7
I1130461
sg8
I788750
sg9
I0
sg10
F0.0
sg11
I0
sg12
F41.0
sg13
I0
sg14
F18.0
sg15
I0
sg16
F0.0
sg17
I00
sg18
I0
sg19
I53122
sg20
I0
sg21
F12.0
ssS'BLACHMAN JEREMY M'
p44
(dp45
g3
I248546
sg4
F2475.0
sg5
F0.010101010101010102
sg6
I0
sg7
I2014835
sg8
I850000
sg9
I0
sg10
F0.14285714285714285
sg11
I954354
sg12
F2326.0
sg13
I765313
sg14
F14.0
sg15
I272
sg16
F2.0
sg17
I00
sg18
I831809
sg19
I84208
sg20
I189041
sg21
F25.0
ssS'SUNDE MARTIN'
p46
(dp47
g3
I257486
sg4
F2647.0
sg5
F0.013978088401964487
sg6
I0
sg7
I1545059
sg8
I700000
sg9
I0
sg10
F0.34210526315789475
sg11
I698920
sg12
F2565.0
sg13
I0
sg14
F38.0
sg15
I111122
sg16
F13.0
sg17
I00
sg18
I476451
sg19
I0
sg20
I698920
sg21
F37.0
ssS'GIBBS DANA R'
p48
(dp49
g3
I0
sg4
F169.0
sg5
F0.0
sg6
I504610
sg7
I966522
sg8
I0
sg9
I0
sg10
F0.0
sg11
I2218275
sg12
F23.0
sg13
I2218275
sg14
F12.0
sg15
I0
sg16
F0.0
sg17
I00
sg18
I461912
sg19
I0
sg20
I0
sg21
F0.0
ssS'LOWRY CHARLES P'
p50
(dp51
g3
I0
sg4
F2007.111111111111
sg5
F0.029146368467670505
sg6
I0
sg7
I0
sg8
I0
sg9
I0
sg10
F0.054246017735872565
sg11
I372205
sg12
F1058.5277777777778
sg13
I372205
sg14
F668.7638888888889
sg15
I0
sg16
F36.27777777777778
sg17
I00
sg18
I0
sg19
I0
sg20
I153686
sg21
F58.5
ssS'COLWELL WESLEY'
p52
(dp53
g3
I288542
sg4
F1758.0
sg5
F0.13651877133105803
sg6
I27610
sg7
I1490344
sg8
I1200000
sg9
I-144062
sg10
F0.275
sg11
I698242
sg12
F1132.0
sg13
I0
sg14
F40.0
sg15
I101740
sg16
F11.0
sg17
I01
sg18
I0
sg19
I16514
sg20
I698242
sg21
F240.0
ssS'MULLER MARK S'
p54
(dp55
g3
I251654
sg4
F136.0
sg5
F0.08823529411764706
sg6
I842924
sg7
I3202070
sg8
I1100000
sg9
I-719000
sg10
F0.0
sg11
I1416848
sg12
F114.0
sg13
I1056320
sg14
F16.0
sg15
I947
sg16
F0.0
sg17
I00
sg18
I1725545
sg19
I0
sg20
I360528
sg21
F12.0
ssS'JACKSON CHARLENE R'
p56
(dp57
g3
I288558
sg4
F258.0
sg5
F0.09689922480620156
sg6
I0
sg7
I551174
sg8
I250000
sg9
I0
sg10
F0.3392857142857143
sg11
I725735
sg12
F117.0
sg13
I185063
sg14
F56.0
sg15
I2435
sg16
F19.0
sg17
I00
sg18
I0
sg19
I10181
sg20
I540672
sg21
F25.0
ssS'WESTFAHL RICHARD K'
p58
(dp59
g3
I63744
sg4
F2007.111111111111
sg5
F0.029146368467670505
sg6
I0
sg7
I762135
sg8
I0
sg9
I-10800
sg10
F0.054246017735872565
sg11
I384930
sg12
F1058.5277777777778
sg13
I0
sg14
F668.7638888888889
sg15
I401130
sg16
F36.27777777777778
sg17
I00
sg18
I256191
sg19
I51870
sg20
I384930
sg21
F58.5
ssS'WALTERS GARETH W'
p60
(dp61
g3
I0
sg4
F2007.111111111111
sg5
F0.029146368467670505
sg6
I53625
sg7
I87410
sg8
I0
sg9
I0
sg10
F0.054246017735872565
sg11
I1030329
sg12
F1058.5277777777778
sg13
I1030329
sg14
F668.7638888888889
sg15
I0
sg16
F36.27777777777778
sg17
I00
sg18
I0
sg19
I33785
sg20
I0
sg21
F58.5
ssS'WALLS JR ROBERT H'
p62
(dp63
g3
I357091
sg4
F671.0
sg5
F0.02533532041728763
sg6
I0
sg7
I1798780
sg8
I850000
sg9
I0
sg10
F0.0
sg11
I5898997
sg12
F215.0
sg13
I4346544
sg14
F146.0
sg15
I2
sg16
F0.0
sg17
I00
sg18
I540751
sg19
I50936
sg20
I1552453
sg21
F17.0
ssS'KITCHEN LOUISE'
p64
(dp65
g3
I271442
sg4
F8305.0
sg5
F0.030222757375075255
sg6
I0
sg7
I3471141
sg8
I3100000
sg9
I0
sg10
F0.11226851851851852
sg11
I547143
sg12
F3669.0
sg13
I81042
sg14
F1728.0
sg15
I93925
sg16
F194.0
sg17
I00
sg18
I0
sg19
I5774
sg20
I466101
sg21
F251.0
ssS'CHAN RONNIE'
p66
(dp67
g3
I0
sg4
F2007.111111111111
sg5
F0.029146368467670505
sg6
I0
sg7
I0
sg8
I0
sg9
I-98784
sg10
F0.054246017735872565
sg11
I0
sg12
F1058.5277777777778
sg13
I0
sg14
F668.7638888888889
sg15
I0
sg16
F36.27777777777778
sg17
I00
sg18
I0
sg19
I0
sg20
I32460
sg21
F58.5
ssS'BELFER ROBERT'
p68
(dp69
g3
I0
sg4
F2007.111111111111
sg5
F0.029146368467670505
sg6
I-102500
sg7
I3285
sg8
I0
sg9
I0
sg10
F0.054246017735872565
sg11
I0
sg12
F1058.5277777777778
sg13
I0
sg14
F668.7638888888889
sg15
I0
sg16
F36.27777777777778
sg17
I00
sg18
I0
sg19
I3285
sg20
I44093
sg21
F58.5
ssS'SHANKMAN JEFFREY A'
p70
(dp71
g3
I304110
sg4
F3221.0
sg5
F0.029183483390251473
sg6
I0
sg7
I3038702
sg8
I2000000
sg9
I0
sg10
F0.030958597538232
sg11
I2072035
sg12
F1730.0
sg13
I1441898
sg14
F2681.0
sg15
I1191
sg16
F83.0
sg17
I00
sg18
I554422
sg19
I178979
sg20
I630137
sg21
F94.0
ssS'WODRASKA JOHN'
p72
(dp73
g3
I0
sg4
F2007.111111111111
sg5
F0.029146368467670505
sg6
I0
sg7
I189583
sg8
I0
sg9
I0
sg10
F0.054246017735872565
sg11
I0
sg12
F1058.5277777777778
sg13
I0
sg14
F668.7638888888889
sg15
I189583
sg16
F36.27777777777778
sg17
I00
sg18
I0
sg19
I0
sg20
I0
sg21
F58.5
ssS'BERGSIEKER RICHARD P'
p74
(dp75
g3
I187922
sg4
F383.0
sg5
F0.010443864229765013
sg6
I0
sg7
I618850
sg8
I250000
sg9
I-485813
sg10
F0.0
sg11
I659249
sg12
F233.0
sg13
I0
sg14
F59.0
sg15
I427316
sg16
F0.0
sg17
I00
sg18
I180250
sg19
I59175
sg20
I659249
sg21
F4.0
ssS'URQUHART JOHN A'
p76
(dp77
g3
I0
sg4
F2007.111111111111
sg5
F0.029146368467670505
sg6
I0
sg7
I228656
sg8
I0
sg9
I-36666
sg10
F0.054246017735872565
sg11
I0
sg12
F1058.5277777777778
sg13
I0
sg14
F668.7638888888889
sg15
I0
sg16
F36.27777777777778
sg17
I00
sg18
I0
sg19
I228656
sg20
I0
sg21
F58.5
ssS'BIBI PHILIPPE A'
p78
(dp79
g3
I213625
sg4
F1607.0
sg5
F0.01431238332296204
sg6
I0
sg7
I2047593
sg8
I1000000
sg9
I0
sg10
F0.2
sg11
I1843816
sg12
F1336.0
sg13
I1465734
sg14
F40.0
sg15
I425688
sg16
F8.0
sg17
I00
sg18
I369721
sg19
I38559
sg20
I378082
sg21
F23.0
ssS'PIRO JIM'
p80
(dp81
g3
I0
sg4
F58.0
sg5
F0.0
sg6
I0
sg7
I0
sg8
I0
sg9
I0
sg10
F0.0625
sg11
I47304
sg12
F3.0
sg13
I0
sg14
F16.0
sg15
I0
sg16
F1.0
sg17
I00
sg18
I0
sg19
I0
sg20
I47304
sg21
F0.0
ssS'RIEKER PAULA H'
p82
(dp83
g3
I249201
sg4
F1328.0
sg5
F0.02635542168674699
sg6
I214678
sg7
I1099100
sg8
I700000
sg9
I-100000
sg10
F0.5853658536585366
sg11
I1918887
sg12
F1258.0
sg13
I1635238
sg14
F82.0
sg15
I1950
sg16
F48.0
sg17
I01
sg18
I0
sg19
I33271
sg20
I283649
sg21
F35.0
ssS'WHALEY DAVID A'
p84
(dp85
g3
I0
sg4
F2007.111111111111
sg5
F0.029146368467670505
sg6
I0
sg7
I0
sg8
I0
sg9
I0
sg10
F0.054246017735872565
sg11
I98718
sg12
F1058.5277777777778
sg13
I98718
sg14
F668.7638888888889
sg15
I0
sg16
F36.27777777777778
sg17
I00
sg18
I0
sg19
I0
sg20
I0
sg21
F58.5
ssS'BECK SALLY W'
p86
(dp87
g3
I231330
sg4
F7315.0
sg5
F0.01968557758031442
sg6
I0
sg7
I969068
sg8
I700000
sg9
I0
sg10
F0.08887865530739121
sg11
I126027
sg12
F2639.0
sg13
I0
sg14
F4343.0
sg15
I566
sg16
F386.0
sg17
I00
sg18
I0
sg19
I37172
sg20
I126027
sg21
F144.0
ssS'HAUG DAVID L'
p88
(dp89
g3
I0
sg4
F573.0
sg5
F0.006980802792321117
sg6
I0
sg7
I475
sg8
I0
sg9
I0
sg10
F0.3684210526315789
sg11
I2217299
sg12
F471.0
sg13
I0
sg14
F19.0
sg15
I0
sg16
F7.0
sg17
I00
sg18
I0
sg19
I475
sg20
I2217299
sg21
F4.0
ssS'ECHOLS JOHN B'
p90
(dp91
g3
I182245
sg4
F2007.111111111111
sg5
F0.029146368467670505
sg6
I0
sg7
I2692324
sg8
I200000
sg9
I0
sg10
F0.054246017735872565
sg11
I1008941
sg12
F1058.5277777777778
sg13
I601438
sg14
F668.7638888888889
sg15
I53775
sg16
F36.27777777777778
sg17
I00
sg18
I2234774
sg19
I21530
sg20
I407503
sg21
F58.5
ssS'MENDELSOHN JOHN'
p92
(dp93
g3
I0
sg4
F2007.111111111111
sg5
F0.029146368467670505
sg6
I0
sg7
I148
sg8
I0
sg9
I-103750
sg10
F0.054246017735872565
sg11
I0
sg12
F1058.5277777777778
sg13
I0
sg14
F668.7638888888889
sg15
I0
sg16
F36.27777777777778
sg17
I00
sg18
I0
sg19
I148
sg20
I0
sg21
F58.5
ssS'HICKERSON GARY J'
p94
(dp95
g3
I211788
sg4
F1320.0
sg5
F0.030303030303030304
sg6
I0
sg7
I2081796
sg8
I1700000
sg9
I0
sg10
F0.037037037037037035
sg11
I441096
sg12
F900.0
sg13
I0
sg14
F27.0
sg15
I1936
sg16
F1.0
sg17
I00
sg18
I69223
sg19
I98849
sg20
I441096
sg21
F40.0
ssS'CLINE KENNETH W'
p96
(dp97
g3
I0
sg4
F2007.111111111111
sg5
F0.029146368467670505
sg6
I0
sg7
I0
sg8
I0
sg9
I0
sg10
F0.054246017735872565
sg11
I189518
sg12
F1058.5277777777778
sg13
I0
sg14
F668.7638888888889
sg15
I0
sg16
F36.27777777777778
sg17
I00
sg18
I0
sg19
I0
sg20
I662086
sg21
F58.5
ssS'RICE KENNETH D'
p98
(dp99
g3
I420636
sg4
F905.0
sg5
F0.04640883977900553
sg6
I0
sg7
I505050
sg8
I1750000
sg9
I-3504386
sg10
F0.2222222222222222
sg11
I22542539
sg12
F864.0
sg13
I19794175
sg14
F18.0
sg15
I174839
sg16
F4.0
sg17
I01
sg18
I1617011
sg19
I46950
sg20
I2748364
sg21
F42.0
ssS'HAYES ROBERT E'
p100
(dp101
g3
I0
sg4
F504.0
sg5
F0.031746031746031744
sg6
I7961
sg7
I7961
sg8
I0
sg9
I0
sg10
F0.0
sg11
I151418
sg12
F50.0
sg13
I0
sg14
F12.0
sg15
I0
sg16
F0.0
sg17
I00
sg18
I0
sg19
I0
sg20
I151418
sg21
F16.0
ssS'KOPPER MICHAEL J'
p102
(dp103
g3
I224305
sg4
F2417.1428571428573
sg5
F0.04045508274231678
sg6
I0
sg7
I2652612
sg8
I800000
sg9
I0
sg10
F0.22211652794292508
sg11
I985032
sg12
F1783.0
sg13
I0
sg14
F300.35714285714283
sg15
I907502
sg16
F66.71428571428571
sg17
I01
sg18
I602671
sg19
I118134
sg20
I985032
sg21
F97.78571428571429
ssS'LEFF DANIEL P'
p104
(dp105
g3
I273746
sg4
F2822.0
sg5
F0.02374202693125443
sg6
I0
sg7
I2664228
sg8
I1000000
sg9
I0
sg10
F0.2222222222222222
sg11
I360528
sg12
F2672.0
sg13
I0
sg14
F63.0
sg15
I3083
sg16
F14.0
sg17
I00
sg18
I1387399
sg19
I0
sg20
I360528
sg21
F67.0
ssS'LAVORATO JOHN J'
p106
(dp107
g3
I339288
sg4
F7259.0
sg5
F0.07273729163796666
sg6
I0
sg7
I10425757
sg8
I8000000
sg9
I0
sg10
F0.15899419729206962
sg11
I5167144
sg12
F3962.0
sg13
I4158995
sg14
F2585.0
sg15
I1552
sg16
F411.0
sg17
I00
sg18
I2035380
sg19
I49537
sg20
I1008149
sg21
F528.0
ssS'BERBERIAN DAVID'
p108
(dp109
g3
I216582
sg4
F2007.111111111111
sg5
F0.029146368467670505
sg6
I0
sg7
I228474
sg8
I0
sg9
I0
sg10
F0.054246017735872565
sg11
I2493616
sg12
F1058.5277777777778
sg13
I1624396
sg14
F668.7638888888889
sg15
I0
sg16
F36.27777777777778
sg17
I00
sg18
I0
sg19
I11892
sg20
I869220
sg21
F58.5
ssS'DETMERING TIMOTHY J'
p110
(dp111
g3
I210500
sg4
F2007.111111111111
sg5
F0.029146368467670505
sg6
I875307
sg7
I1204583
sg8
I425000
sg9
I-775241
sg10
F0.054246017735872565
sg11
I2027865
sg12
F1058.5277777777778
sg13
I2027865
sg14
F668.7638888888889
sg15
I1105
sg16
F36.27777777777778
sg17
I00
sg18
I415657
sg19
I52255
sg20
I315068
sg21
F58.5
ssS'WAKEHAM JOHN'
p112
(dp113
g3
I0
sg4
F2007.111111111111
sg5
F0.029146368467670505
sg6
I0
sg7
I213071
sg8
I0
sg9
I0
sg10
F0.054246017735872565
sg11
I0
sg12
F1058.5277777777778
sg13
I0
sg14
F668.7638888888889
sg15
I0
sg16
F36.27777777777778
sg17
I00
sg18
I0
sg19
I103773
sg20
I0
sg21
F58.5
ssS'POWERS WILLIAM'
p114
(dp115
g3
I0
sg4
F653.0
sg5
F0.0
sg6
I0
sg7
I0
sg8
I0
sg9
I-17500
sg10
F0.0
sg11
I0
sg12
F12.0
sg13
I0
sg14
F26.0
sg15
I0
sg16
F0.0
sg17
I00
sg18
I0
sg19
I0
sg20
I0
sg21
F0.0
ssS'GOLD JOSEPH'
p116
(dp117
g3
I272880
sg4
F2007.111111111111
sg5
F0.029146368467670505
sg6
I0
sg7
I2146973
sg8
I750000
sg9
I0
sg10
F0.054246017735872565
sg11
I877611
sg12
F1058.5277777777778
sg13
I436515
sg14
F668.7638888888889
sg15
I819288
sg16
F36.27777777777778
sg17
I00
sg18
I304805
sg19
I0
sg20
I441096
sg21
F58.5
ssS'BANNANTINE JAMES M'
p118
(dp119
g3
I477
sg4
F566.0
sg5
F0.06890459363957598
sg6
I0
sg7
I916197
sg8
I0
sg9
I-5104
sg10
F0.0
sg11
I5243487
sg12
F465.0
sg13
I4046157
sg14
F29.0
sg15
I864523
sg16
F0.0
sg17
I00
sg18
I0
sg19
I56301
sg20
I1757552
sg21
F39.0
ssS'DUNCAN JOHN H'
p120
(dp121
g3
I0
sg4
F2007.111111111111
sg5
F0.029146368467670505
sg6
I0
sg7
I77492
sg8
I0
sg9
I-25000
sg10
F0.054246017735872565
sg11
I371750
sg12
F1058.5277777777778
sg13
I371750
sg14
F668.7638888888889
sg15
I0
sg16
F36.27777777777778
sg17
I00
sg18
I0
sg19
I0
sg20
I0
sg21
F58.5
ssS'SHAPIRO RICHARD S'
p122
(dp123
g3
I269076
sg4
F15149.0
sg5
F0.0048848108786058485
sg6
I0
sg7
I1057548
sg8
I650000
sg9
I0
sg10
F0.053497942386831275
sg11
I987001
sg12
F4527.0
sg13
I607837
sg14
F1215.0
sg15
I705
sg16
F65.0
sg17
I00
sg18
I0
sg19
I137767
sg20
I379164
sg21
F74.0
ssS'SHERRIFF JOHN R'
p124
(dp125
g3
I428780
sg4
F3187.0
sg5
F0.008785691873235017
sg6
I0
sg7
I4335388
sg8
I1500000
sg9
I0
sg10
F0.25
sg11
I3128982
sg12
F2103.0
sg13
I1835558
sg14
F92.0
sg15
I1852186
sg16
F23.0
sg17
I00
sg18
I554422
sg19
I0
sg20
I1293424
sg21
F28.0
ssS'SHELBY REX'
p126
(dp127
g3
I211844
sg4
F225.0
sg5
F0.057777777777777775
sg6
I0
sg7
I2003885
sg8
I200000
sg9
I-4167
sg10
F0.358974358974359
sg11
I2493616
sg12
F91.0
sg13
I1624396
sg14
F39.0
sg15
I1573324
sg16
F14.0
sg17
I01
sg18
I0
sg19
I22884
sg20
I869220
sg21
F13.0
ssS'LEMAISTRE CHARLES'
p128
(dp129
g3
I0
sg4
F2007.111111111111
sg5
F0.029146368467670505
sg6
I0
sg7
I87492
sg8
I0
sg9
I-25000
sg10
F0.054246017735872565
sg11
I412878
sg12
F1058.5277777777778
sg13
I412878
sg14
F668.7638888888889
sg15
I0
sg16
F36.27777777777778
sg17
I00
sg18
I0
sg19
I0
sg20
I0
sg21
F58.5
ssS'DEFFNER JOSEPH M'
p130
(dp131
g3
I206121
sg4
F714.0
sg5
F0.16106442577030813
sg6
I0
sg7
I1208649
sg8
I600000
sg9
I0
sg10
F0.05405405405405406
sg11
I159211
sg12
F552.0
sg13
I17378
sg14
F74.0
sg15
I25553
sg16
F4.0
sg17
I00
sg18
I335349
sg19
I41626
sg20
I141833
sg21
F115.0
ssS'KISHKILL JOSEPH G'
p132
(dp133
g3
I174246
sg4
F2007.111111111111
sg5
F0.029146368467670505
sg6
I0
sg7
I704896
sg8
I0
sg9
I-51042
sg10
F0.054246017735872565
sg11
I1034346
sg12
F1058.5277777777778
sg13
I0
sg14
F668.7638888888889
sg15
I465357
sg16
F36.27777777777778
sg17
I00
sg18
I0
sg19
I116335
sg20
I1034346
sg21
F58.5
ssS'WHALLEY LAWRENCE G'
p134
(dp135
g3
I510364
sg4
F6019.0
sg5
F0.03090214321315833
sg6
I0
sg7
I4677574
sg8
I3000000
sg9
I0
sg10
F0.04316546762589928
sg11
I6079137
sg12
F3920.0
sg13
I3282960
sg14
F556.0
sg15
I301026
sg16
F24.0
sg17
I00
sg18
I808346
sg19
I57838
sg20
I2796177
sg21
F186.0
ssS'MCCARTY DANNY J'
p136
(dp137
g3
I0
sg4
F1433.0
sg5
F0.017445917655268667
sg6
I0
sg7
I0
sg8
I0
sg9
I0
sg10
F0.009302325581395349
sg11
I758931
sg12
F508.0
sg13
I664375
sg14
F215.0
sg15
I0
sg16
F2.0
sg17
I00
sg18
I0
sg19
I0
sg20
I94556
sg21
F25.0
ssS'MCCONNELL MICHAEL S'
p138
(dp139
g3
I365038
sg4
F3329.0
sg5
F0.02763592670471613
sg6
I0
sg7
I2101364
sg8
I1100000
sg9
I0
sg10
F0.07075127644055434
sg11
I3101279
sg12
F2189.0
sg13
I1623010
sg14
F2742.0
sg15
I540
sg16
F194.0
sg17
I00
sg18
I554422
sg19
I81364
sg20
I1478269
sg21
F92.0
ssS'DELAINEY DAVID W'
p140
(dp141
g3
I365163
sg4
F3093.0
sg5
F0.02133850630455868
sg6
I0
sg7
I4747979
sg8
I3000000
sg9
I0
sg10
F0.198435972629521
sg11
I3614261
sg12
F2097.0
sg13
I2291113
sg14
F3069.0
sg15
I1661
sg16
F609.0
sg17
I01
sg18
I1294981
sg19
I86174
sg20
I1323148
sg21
F66.0
ssS'SULLIVAN-SHAKLOVITZ COLLEEN'
p142
(dp143
g3
I162779
sg4
F2007.111111111111
sg5
F0.029146368467670505
sg6
I181993
sg7
I999356
sg8
I100000
sg9
I0
sg10
F0.054246017735872565
sg11
I1362375
sg12
F1058.5277777777778
sg13
I1362375
sg14
F668.7638888888889
sg15
I162
sg16
F36.27777777777778
sg17
I00
sg18
I554422
sg19
I0
sg20
I0
sg21
F58.5
ssS'WROBEL BRUCE'
p144
(dp145
g3
I0
sg4
F2007.111111111111
sg5
F0.029146368467670505
sg6
I0
sg7
I0
sg8
I0
sg9
I0
sg10
F0.054246017735872565
sg11
I139130
sg12
F1058.5277777777778
sg13
I139130
sg14
F668.7638888888889
sg15
I0
sg16
F36.27777777777778
sg17
I00
sg18
I0
sg19
I0
sg20
I0
sg21
F58.5
ssS'FOY JOE'
p146
(dp147
g3
I0
sg4
F57.0
sg5
F0.0
sg6
I181755
sg7
I181755
sg8
I0
sg9
I0
sg10
F0.0
sg11
I343434
sg12
F2.0
sg13
I343434
sg14
F13.0
sg15
I0
sg16
F0.0
sg17
I00
sg18
I0
sg19
I0
sg20
I0
sg21
F0.0
ssS'MEYER JEROME J'
p148
(dp149
g3
I0
sg4
F2007.111111111111
sg5
F0.029146368467670505
sg6
I0
sg7
I2151
sg8
I0
sg9
I-38346
sg10
F0.054246017735872565
sg11
I0
sg12
F1058.5277777777778
sg13
I0
sg14
F668.7638888888889
sg15
I0
sg16
F36.27777777777778
sg17
I00
sg18
I0
sg19
I2151
sg20
I0
sg21
F58.5
ssS'LAY KENNETH L'
p150
(dp151
g3
I1072321
sg4
F4273.0
sg5
F0.028785396676807865
sg6
I202911
sg7
I103559793
sg8
I7000000
sg9
I-300000
sg10
F0.4444444444444444
sg11
I49110078
sg12
F2411.0
sg13
I34348384
sg14
F36.0
sg15
I10359729
sg16
F16.0
sg17
I01
sg18
I3600000
sg19
I99832
sg20
I14761694
sg21
F123.0
ssS'BUTTS ROBERT H'
p152
(dp153
g3
I261516
sg4
F2007.111111111111
sg5
F0.029146368467670505
sg6
I0
sg7
I1271582
sg8
I750000
sg9
I-75000
sg10
F0.054246017735872565
sg11
I417619
sg12
F1058.5277777777778
sg13
I0
sg14
F668.7638888888889
sg15
I150656
sg16
F36.27777777777778
sg17
I00
sg18
I175000
sg19
I9410
sg20
I417619
sg21
F58.5
ssS'OLSON CINDY K'
p154
(dp155
g3
I329078
sg4
F1184.0
sg5
F0.016891891891891893
sg6
I77716
sg7
I1321557
sg8
I750000
sg9
I0
sg10
F0.28846153846153844
sg11
I2606763
sg12
F856.0
sg13
I1637034
sg14
F52.0
sg15
I972
sg16
F15.0
sg17
I00
sg18
I100000
sg19
I63791
sg20
I969729
sg21
F20.0
ssS'MCDONALD REBECCA'
p156
(dp157
g3
I0
sg4
F894.0
sg5
F0.06040268456375839
sg6
I0
sg7
I0
sg8
I0
sg9
I0
sg10
F0.07692307692307693
sg11
I1691366
sg12
F720.0
sg13
I757301
sg14
F13.0
sg15
I0
sg16
F1.0
sg17
I00
sg18
I0
sg19
I0
sg20
I934065
sg21
F54.0
ssS'CUMBERLAND MICHAEL S'
p158
(dp159
g3
I184899
sg4
F2007.111111111111
sg5
F0.029146368467670505
sg6
I0
sg7
I807956
sg8
I325000
sg9
I0
sg10
F0.054246017735872565
sg11
I207940
sg12
F1058.5277777777778
sg13
I0
sg14
F668.7638888888889
sg15
I713
sg16
F36.27777777777778
sg17
I00
sg18
I275000
sg19
I22344
sg20
I207940
sg21
F58.5
ssS'GAHN ROBERT S'
p160
(dp161
g3
I192008
sg4
F2007.111111111111
sg5
F0.029146368467670505
sg6
I73122
sg7
I900585
sg8
I509870
sg9
I-1042
sg10
F0.054246017735872565
sg11
I318607
sg12
F1058.5277777777778
sg13
I83237
sg14
F668.7638888888889
sg15
I76547
sg16
F36.27777777777778
sg17
I00
sg18
I0
sg19
I50080
sg20
I235370
sg21
F58.5
ssS'MCCLELLAN GEORGE'
p162
(dp163
g3
I263413
sg4
F1744.0
sg5
F0.02981651376146789
sg6
I0
sg7
I1318763
sg8
I900000
sg9
I-125000
sg10
F0.0
sg11
I947861
sg12
F1469.0
sg13
I506765
sg14
F49.0
sg15
I51587
sg16
F0.0
sg17
I00
sg18
I0
sg19
I228763
sg20
I441096
sg21
F52.0
ssS'HERMANN ROBERT J'
p164
(dp165
g3
I262663
sg4
F2007.111111111111
sg5
F0.029146368467670505
sg6
I0
sg7
I1297461
sg8
I700000
sg9
I-280000
sg10
F0.054246017735872565
sg11
I668132
sg12
F1058.5277777777778
sg13
I187500
sg14
F668.7638888888889
sg15
I416441
sg16
F36.27777777777778
sg17
I00
sg18
I150000
sg19
I48357
sg20
I480632
sg21
F58.5
ssS'SCRIMSHAW MATTHEW'
p166
(dp167
g3
I0
sg4
F2007.111111111111
sg5
F0.029146368467670505
sg6
I0
sg7
I0
sg8
I0
sg9
I0
sg10
F0.054246017735872565
sg11
I759557
sg12
F1058.5277777777778
sg13
I759557
sg14
F668.7638888888889
sg15
I0
sg16
F36.27777777777778
sg17
I00
sg18
I0
sg19
I0
sg20
I0
sg21
F58.5
ssS'GATHMANN WILLIAM D'
p168
(dp169
g3
I0
sg4
F2007.111111111111
sg5
F0.029146368467670505
sg6
I0
sg7
I0
sg8
I0
sg9
I0
sg10
F0.054246017735872565
sg11
I1945360
sg12
F1058.5277777777778
sg13
I1753766
sg14
F668.7638888888889
sg15
I0
sg16
F36.27777777777778
sg17
I00
sg18
I0
sg19
I0
sg20
I264013
sg21
F58.5
ssS'HAEDICKE MARK E'
p170
(dp171
g3
I374125
sg4
F4009.0
sg5
F0.04489897730107259
sg6
I2157527
sg7
I3859065
sg8
I1150000
sg9
I-934484
sg10
F0.03142709943328181
sg11
I803094
sg12
F1847.0
sg13
I608750
sg14
F1941.0
sg15
I52382
sg16
F61.0
sg17
I00
sg18
I983346
sg19
I76169
sg20
I524169
sg21
F180.0
ssS'BOWEN JR RAYMOND M'
p172
(dp173
g3
I278601
sg4
F1858.0
sg5
F0.07534983853606028
sg6
I0
sg7
I2669589
sg8
I1350000
sg9
I-833
sg10
F0.5555555555555556
sg11
I252055
sg12
F1593.0
sg13
I0
sg14
F27.0
sg15
I1621
sg16
F15.0
sg17
I01
sg18
I974293
sg19
I65907
sg20
I252055
sg21
F140.0
ssS'GILLIS JOHN'
p174
(dp175
g3
I0
sg4
F2007.111111111111
sg5
F0.029146368467670505
sg6
I0
sg7
I0
sg8
I0
sg9
I0
sg10
F0.054246017735872565
sg11
I85641
sg12
F1058.5277777777778
sg13
I9803
sg14
F668.7638888888889
sg15
I0
sg16
F36.27777777777778
sg17
I00
sg18
I0
sg19
I0
sg20
I75838
sg21
F58.5
ssS'FITZGERALD JAY L'
p176
(dp177
g3
I199157
sg4
F936.0
sg5
F0.0010683760683760685
sg6
I0
sg7
I1414857
sg8
I350000
sg9
I0
sg10
F0.5
sg11
I1621236
sg12
F723.0
sg13
I664461
sg14
F16.0
sg15
I285414
sg16
F8.0
sg17
I00
sg18
I556416
sg19
I23870
sg20
I956775
sg21
F1.0
ssS'MORAN MICHAEL P'
p178
(dp179
g3
I0
sg4
F672.0
sg5
F0.0
sg6
I0
sg7
I0
sg8
I0
sg9
I0
sg10
F0.0
sg11
I221141
sg12
F127.0
sg13
I59539
sg14
F19.0
sg15
I0
sg16
F0.0
sg17
I00
sg18
I0
sg19
I0
sg20
I161602
sg21
F0.0
ssS'REDMOND BRIAN L'
p180
(dp181
g3
I96840
sg4
F1671.0
sg5
F0.12208258527827648
sg6
I0
sg7
I111529
sg8
I0
sg9
I0
sg10
F0.22171945701357465
sg11
I7890324
sg12
F1063.0
sg13
I7509039
sg14
F221.0
sg15
I0
sg16
F49.0
sg17
I00
sg18
I0
sg19
I14689
sg20
I381285
sg21
F204.0
ssS'BAZELIDES PHILIP J'
p182
(dp183
g3
I80818
sg4
F2007.111111111111
sg5
F0.029146368467670505
sg6
I684694
sg7
I860136
sg8
I0
sg9
I0
sg10
F0.054246017735872565
sg11
I1599641
sg12
F1058.5277777777778
sg13
I1599641
sg14
F668.7638888888889
sg15
I874
sg16
F36.27777777777778
sg17
I00
sg18
I93750
sg19
I0
sg20
I0
sg21
F58.5
ssS'BELDEN TIMOTHY N'
p184
(dp185
g3
I213999
sg4
F7991.0
sg5
F0.028532098610937303
sg6
I2144013
sg7
I5501630
sg8
I5249999
sg9
I-2334434
sg10
F0.2231404958677686
sg11
I1110705
sg12
F5521.0
sg13
I953136
sg14
F484.0
sg15
I210698
sg16
F108.0
sg17
I01
sg18
I0
sg19
I17355
sg20
I157569
sg21
F228.0
ssS'DURAN WILLIAM D'
p186
(dp187
g3
I210692
sg4
F904.0
sg5
F0.1172566371681416
sg6
I0
sg7
I2093263
sg8
I750000
sg9
I0
sg10
F0.25
sg11
I1640910
sg12
F599.0
sg13
I1451869
sg14
F12.0
sg15
I1568
sg16
F3.0
sg17
I00
sg18
I1105218
sg19
I25785
sg20
I189041
sg21
F106.0
ssS'THORN TERENCE H'
p188
(dp189
g3
I222093
sg4
F266.0
sg5
F0.0
sg6
I16586
sg7
I911453
sg8
I0
sg9
I0
sg10
F0.0
sg11
I4817796
sg12
F73.0
sg13
I4452476
sg14
F41.0
sg15
I426629
sg16
F0.0
sg17
I00
sg18
I200000
sg19
I46145
sg20
I365320
sg21
F0.0
ssS'LINDHOLM TOD A'
p190
(dp191
g3
I236457
sg4
F2007.111111111111
sg5
F0.029146368467670505
sg6
I204075
sg7
I875889
sg8
I200000
sg9
I0
sg10
F0.054246017735872565
sg11
I3064208
sg12
F1058.5277777777778
sg13
I2549361
sg14
F668.7638888888889
sg15
I2630
sg16
F36.27777777777778
sg17
I00
sg18
I175000
sg19
I57727
sg20
I514847
sg21
F58.5
ssS'FASTOW ANDREW S'
p192
(dp193
g3
I440698
sg4
F2417.1428571428573
sg5
F0.04045508274231678
sg6
I0
sg7
I2424083
sg8
I1300000
sg9
I-1386055
sg10
F0.22211652794292508
sg11
I1794412
sg12
F1783.0
sg13
I0
sg14
F300.35714285714283
sg15
I277464
sg16
F66.71428571428571
sg17
I01
sg18
I1736055
sg19
I55921
sg20
I1794412
sg21
F97.78571428571429
ssS'CALGER CHRISTOPHER F'
p194
(dp195
g3
I240189
sg4
F2598.0
sg5
F0.07659738260200154
sg6
I0
sg7
I1639297
sg8
I1250000
sg9
I-262500
sg10
F0.1736111111111111
sg11
I126027
sg12
F2188.0
sg13
I0
sg14
F144.0
sg15
I486
sg16
F25.0
sg17
I01
sg18
I375304
sg19
I35818
sg20
I126027
sg21
F199.0
ssS'LEWIS RICHARD'
p196
(dp197
g3
I0
sg4
F952.0
sg5
F0.01050420168067227
sg6
I0
sg7
I0
sg8
I0
sg9
I0
sg10
F0.0
sg11
I850477
sg12
F739.0
sg13
I850477
sg14
F26.0
sg15
I0
sg16
F0.0
sg17
I00
sg18
I0
sg19
I0
sg20
I0
sg21
F10.0
ssS'KAMINSKI WINCENTY J'
p198
(dp199
g3
I275101
sg4
F4607.0
sg5
F0.008899500759713479
sg6
I0
sg7
I1086821
sg8
I400000
sg9
I0
sg10
F0.011901447661469933
sg11
I976037
sg12
F583.0
sg13
I850010
sg14
F14368.0
sg15
I4669
sg16
F171.0
sg17
I00
sg18
I323466
sg19
I83585
sg20
I126027
sg21
F41.0
ssS'LOCKHART EUGENE E'
p200
(dp201
g3
I0
sg4
F2007.111111111111
sg5
F0.029146368467670505
sg6
I0
sg7
I0
sg8
I0
sg9
I0
sg10
F0.054246017735872565
sg11
I0
sg12
F1058.5277777777778
sg13
I0
sg14
F668.7638888888889
sg15
I0
sg16
F36.27777777777778
sg17
I00
sg18
I0
sg19
I0
sg20
I0
sg21
F58.5
ssS'COX DAVID'
p202
(dp203
g3
I314288
sg4
F102.0
sg5
F0.0
sg6
I0
sg7
I1101393
sg8
I800000
sg9
I-41250
sg10
F0.12121212121212122
sg11
I495633
sg12
F71.0
sg13
I117551
sg14
F33.0
sg15
I494
sg16
F4.0
sg17
I00
sg18
I0
sg19
I27861
sg20
I378082
sg21
F0.0
ssS'OVERDYKE JR JERE C'
p204
(dp205
g3
I94941
sg4
F2007.111111111111
sg5
F0.029146368467670505
sg6
I0
sg7
I249787
sg8
I0
sg9
I0
sg10
F0.054246017735872565
sg11
I7307594
sg12
F1058.5277777777778
sg13
I5266578
sg14
F668.7638888888889
sg15
I176
sg16
F36.27777777777778
sg17
I00
sg18
I135836
sg19
I18834
sg20
I2041016
sg21
F58.5
ssS'PEREIRA PAULO V. FERRAZ'
p206
(dp207
g3
I0
sg4
F2007.111111111111
sg5
F0.029146368467670505
sg6
I0
sg7
I27942
sg8
I0
sg9
I-101250
sg10
F0.054246017735872565
sg11
I0
sg12
F1058.5277777777778
sg13
I0
sg14
F668.7638888888889
sg15
I0
sg16
F36.27777777777778
sg17
I00
sg18
I0
sg19
I27942
sg20
I0
sg21
F58.5
ssS'STABLER FRANK'
p208
(dp209
g3
I239502
sg4
F2007.111111111111
sg5
F0.029146368467670505
sg6
I0
sg7
I1112087
sg8
I500000
sg9
I0
sg10
F0.054246017735872565
sg11
I511734
sg12
F1058.5277777777778
sg13
I0
sg14
F668.7638888888889
sg15
I356071
sg16
F36.27777777777778
sg17
I00
sg18
I0
sg19
I16514
sg20
I511734
sg21
F58.5
ssS'SKILLING JEFFREY K'
p210
(dp211
g3
I1111258
sg4
F3627.0
sg5
F0.0242624758753791
sg6
I0
sg7
I8682716
sg8
I5600000
sg9
I0
sg10
F0.2777777777777778
sg11
I26093672
sg12
F2042.0
sg13
I19250000
sg14
F108.0
sg15
I22122
sg16
F30.0
sg17
I01
sg18
I1920000
sg19
I29336
sg20
I6843672
sg21
F88.0
ssS'BLAKE JR. NORMAN P'
p212
(dp213
g3
I0
sg4
F2007.111111111111
sg5
F0.029146368467670505
sg6
I0
sg7
I1279
sg8
I0
sg9
I-113784
sg10
F0.054246017735872565
sg11
I0
sg12
F1058.5277777777778
sg13
I0
sg14
F668.7638888888889
sg15
I0
sg16
F36.27777777777778
sg17
I00
sg18
I0
sg19
I1279
sg20
I0
sg21
F58.5
ssS'SHERRICK JEFFREY B'
p214
(dp215
g3
I0
sg4
F613.0
sg5
F0.0636215334420881
sg6
I0
sg7
I0
sg8
I0
sg9
I0
sg10
F0.72
sg11
I1832468
sg12
F583.0
sg13
I1426469
sg14
F25.0
sg15
I0
sg16
F18.0
sg17
I00
sg18
I0
sg19
I0
sg20
I405999
sg21
F39.0
ssS'PRENTICE JAMES'
p216
(dp217
g3
I0
sg4
F2007.111111111111
sg5
F0.029146368467670505
sg6
I564348
sg7
I564348
sg8
I0
sg9
I0
sg10
F0.054246017735872565
sg11
I1095040
sg12
F1058.5277777777778
sg13
I886231
sg14
F668.7638888888889
sg15
I0
sg16
F36.27777777777778
sg17
I00
sg18
I0
sg19
I0
sg20
I208809
sg21
F58.5
ssS'GRAY RODNEY'
p218
(dp219
g3
I6615
sg4
F2007.111111111111
sg5
F0.029146368467670505
sg6
I93585
sg7
I1146658
sg8
I0
sg9
I0
sg10
F0.054246017735872565
sg11
I0
sg12
F1058.5277777777778
sg13
I0
sg14
F668.7638888888889
sg15
I680833
sg16
F36.27777777777778
sg17
I00
sg18
I365625
sg19
I0
sg20
I0
sg21
F58.5
ssS'PICKERING MARK R'
p220
(dp221
g3
I655037
sg4
F898.0
sg5
F0.0077951002227171495
sg6
I0
sg7
I1386690
sg8
I300000
sg9
I0
sg10
F0.0
sg11
I28798
sg12
F728.0
sg13
I28798
sg14
F67.0
sg15
I0
sg16
F0.0
sg17
I00
sg18
I0
sg19
I31653
sg20
I0
sg21
F7.0
ssS'NOLES JAMES L'
p222
(dp223
g3
I0
sg4
F2007.111111111111
sg5
F0.029146368467670505
sg6
I774401
sg7
I774401
sg8
I0
sg9
I0
sg10
F0.054246017735872565
sg11
I368705
sg12
F1058.5277777777778
sg13
I0
sg14
F668.7638888888889
sg15
I0
sg16
F36.27777777777778
sg17
I00
sg18
I0
sg19
I0
sg20
I463261
sg21
F58.5
ssS'KEAN STEVEN J'
p224
(dp225
g3
I404338
sg4
F12754.0
sg5
F0.010976948408342482
sg6
I0
sg7
I1747522
sg8
I1000000
sg9
I0
sg10
F0.05725699067909454
sg11
I6153642
sg12
F3639.0
sg13
I2022048
sg14
F6759.0
sg15
I1231
sg16
F387.0
sg17
I00
sg18
I300000
sg19
I41953
sg20
I4131594
sg21
F140.0
ssS'FOWLER PEGGY'
p226
(dp227
g3
I0
sg4
F517.0
sg5
F0.0
sg6
I0
sg7
I0
sg8
I0
sg9
I0
sg10
F0.0
sg11
I1884748
sg12
F10.0
sg13
I1324578
sg14
F36.0
sg15
I0
sg16
F0.0
sg17
I00
sg18
I0
sg19
I0
sg20
I560170
sg21
F0.0
ssS'WASAFF GEORGE'
p228
(dp229
g3
I259996
sg4
F400.0
sg5
F0.055
sg6
I831299
sg7
I1034395
sg8
I325000
sg9
I-583325
sg10
F0.23333333333333334
sg11
I2056427
sg12
F337.0
sg13
I1668260
sg14
F30.0
sg15
I1425
sg16
F7.0
sg17
I00
sg18
I200000
sg19
I0
sg20
I388167
sg21
F22.0
ssS'WHITE JR THOMAS E'
p230
(dp231
g3
I317543
sg4
F2007.111111111111
sg5
F0.029146368467670505
sg6
I0
sg7
I1934359
sg8
I450000
sg9
I0
sg10
F0.054246017735872565
sg11
I15144123
sg12
F1058.5277777777778
sg13
I1297049
sg14
F668.7638888888889
sg15
I1085463
sg16
F36.27777777777778
sg17
I00
sg18
I0
sg19
I81353
sg20
I13847074
sg21
F58.5
ssS'CHRISTODOULOU DIOMEDES'
p232
(dp233
g3
I0
sg4
F2007.111111111111
sg5
F0.029146368467670505
sg6
I0
sg7
I0
sg8
I0
sg9
I0
sg10
F0.054246017735872565
sg11
I6077885
sg12
F1058.5277777777778
sg13
I5127155
sg14
F668.7638888888889
sg15
I0
sg16
F36.27777777777778
sg17
I00
sg18
I0
sg19
I0
sg20
I950730
sg21
F58.5
ssS'ALLEN PHILLIP K'
p234
(dp235
g3
I201955
sg4
F2902.0
sg5
F0.016195727084769126
sg6
I2869717
sg7
I4484442
sg8
I4175000
sg9
I-3081055
sg10
F0.029612756264236904
sg11
I1729541
sg12
F1407.0
sg13
I1729541
sg14
F2195.0
sg15
I152
sg16
F65.0
sg17
I00
sg18
I304805
sg19
I13868
sg20
I126027
sg21
F47.0
ssS'SHARP VICTORIA T'
p236
(dp237
g3
I248146
sg4
F3136.0
sg5
F0.007653061224489796
sg6
I187469
sg7
I1576511
sg8
I600000
sg9
I0
sg10
F0.04411764705882353
sg11
I494136
sg12
F2477.0
sg13
I281073
sg14
F136.0
sg15
I2401
sg16
F6.0
sg17
I00
sg18
I422158
sg19
I116337
sg20
I213063
sg21
F24.0
ssS'JAEDICKE ROBERT'
p238
(dp239
g3
I0
sg4
F2007.111111111111
sg5
F0.029146368467670505
sg6
I0
sg7
I83750
sg8
I0
sg9
I-25000
sg10
F0.054246017735872565
sg11
I431750
sg12
F1058.5277777777778
sg13
I431750
sg14
F668.7638888888889
sg15
I0
sg16
F36.27777777777778
sg17
I00
sg18
I0
sg19
I0
sg20
I44093
sg21
F58.5
ssS'WINOKUR JR. HERBERT S'
p240
(dp241
g3
I0
sg4
F2007.111111111111
sg5
F0.029146368467670505
sg6
I0
sg7
I84992
sg8
I0
sg9
I-25000
sg10
F0.054246017735872565
sg11
I0
sg12
F1058.5277777777778
sg13
I0
sg14
F668.7638888888889
sg15
I0
sg16
F36.27777777777778
sg17
I00
sg18
I0
sg19
I1413
sg20
I0
sg21
F58.5
ssS'BROWN MICHAEL'
p242
(dp243
g3
I0
sg4
F1486.0
sg5
F0.008748317631224764
sg6
I0
sg7
I49288
sg8
I0
sg9
I0
sg10
F0.024390243902439025
sg11
I0
sg12
F761.0
sg13
I0
sg14
F41.0
sg15
I0
sg16
F1.0
sg17
I00
sg18
I0
sg19
I49288
sg20
I0
sg21
F13.0
ssS'BADUM JAMES P'
p244
(dp245
g3
I0
sg4
F2007.111111111111
sg5
F0.029146368467670505
sg6
I178980
sg7
I182466
sg8
I0
sg9
I0
sg10
F0.054246017735872565
sg11
I257817
sg12
F1058.5277777777778
sg13
I257817
sg14
F668.7638888888889
sg15
I0
sg16
F36.27777777777778
sg17
I00
sg18
I0
sg19
I3486
sg20
I0
sg21
F58.5
ssS'HUGHES JAMES A'
p246
(dp247
g3
I0
sg4
F719.0
sg5
F0.048678720445062586
sg6
I0
sg7
I0
sg8
I0
sg9
I0
sg10
F0.14705882352941177
sg11
I1118394
sg12
F589.0
sg13
I754966
sg14
F34.0
sg15
I0
sg16
F5.0
sg17
I00
sg18
I0
sg19
I0
sg20
I363428
sg21
F35.0
ssS'REYNOLDS LAWRENCE'
p248
(dp249
g3
I76399
sg4
F2007.111111111111
sg5
F0.029146368467670505
sg6
I51365
sg7
I394475
sg8
I100000
sg9
I-200000
sg10
F0.054246017735872565
sg11
I4221891
sg12
F1058.5277777777778
sg13
I4160672
sg14
F668.7638888888889
sg15
I202052
sg16
F36.27777777777778
sg17
I00
sg18
I156250
sg19
I8409
sg20
I201483
sg21
F58.5
ssS'DIMICHELE RICHARD G'
p250
(dp251
g3
I262788
sg4
F2007.111111111111
sg5
F0.029146368467670505
sg6
I0
sg7
I2368151
sg8
I1000000
sg9
I0
sg10
F0.054246017735872565
sg11
I8317782
sg12
F1058.5277777777778
sg13
I8191755
sg14
F668.7638888888889
sg15
I374689
sg16
F36.27777777777778
sg17
I00
sg18
I694862
sg19
I35812
sg20
I126027
sg21
F58.5
ssS'BHATNAGAR SANJAY'
p252
(dp253
g3
I0
sg4
F523.0
sg5
F0.0
sg6
I0
sg7
I137864
sg8
I0
sg9
I0
sg10
F0.034482758620689655
sg11
I15456290
sg12
F463.0
sg13
I15456290
sg14
F29.0
sg15
I0
sg16
F1.0
sg17
I00
sg18
I0
sg19
I137864
sg20
I2604490
sg21
F0.0
ssS'CARTER REBECCA C'
p254
(dp255
g3
I261809
sg4
F312.0
sg5
F0.09294871794871795
sg6
I0
sg7
I477557
sg8
I300000
sg9
I-159792
sg10
F0.4666666666666667
sg11
I0
sg12
F196.0
sg13
I0
sg14
F15.0
sg15
I540
sg16
F7.0
sg17
I00
sg18
I75000
sg19
I0
sg20
I307301
sg21
F29.0
ssS'BUCHANAN HAROLD G'
p256
(dp257
g3
I248017
sg4
F1088.0
sg5
F0.0
sg6
I0
sg7
I1054637
sg8
I500000
sg9
I0
sg10
F0.0
sg11
I1014505
sg12
F23.0
sg13
I825464
sg14
F125.0
sg15
I1215
sg16
F0.0
sg17
I00
sg18
I304805
sg19
I600
sg20
I189041
sg21
F0.0
ssS'YEAP SOON'
p258
(dp259
g3
I0
sg4
F2007.111111111111
sg5
F0.029146368467670505
sg6
I0
sg7
I55097
sg8
I0
sg9
I0
sg10
F0.054246017735872565
sg11
I192758
sg12
F1058.5277777777778
sg13
I192758
sg14
F668.7638888888889
sg15
I0
sg16
F36.27777777777778
sg17
I00
sg18
I0
sg19
I55097
sg20
I0
sg21
F58.5
ssS'MURRAY JULIA H'
p260
(dp261
g3
I229284
sg4
F2192.0
sg5
F0.005018248175182482
sg6
I0
sg7
I812194
sg8
I400000
sg9
I0
sg10
F0.044444444444444446
sg11
I597461
sg12
F395.0
sg13
I400478
sg14
F45.0
sg15
I330
sg16
F2.0
sg17
I00
sg18
I125000
sg19
I57580
sg20
I196983
sg21
F11.0
ssS'GARLAND C KEVIN'
p262
(dp263
g3
I231946
sg4
F209.0
sg5
F0.04784688995215311
sg6
I0
sg7
I1566469
sg8
I850000
sg9
I0
sg10
F0.6136363636363636
sg11
I896153
sg12
F178.0
sg13
I636246
sg14
F44.0
sg15
I60814
sg16
F27.0
sg17
I00
sg18
I375304
sg19
I48405
sg20
I259907
sg21
F10.0
ssS'DODSON KEITH'
p264
(dp265
g3
I221003
sg4
F176.0
sg5
F0.056818181818181816
sg6
I0
sg7
I319941
sg8
I70000
sg9
I0
sg10
F0.21428571428571427
sg11
I0
sg12
F114.0
sg13
I0
sg14
F14.0
sg15
I774
sg16
F3.0
sg17
I00
sg18
I0
sg19
I28164
sg20
I0
sg21
F10.0
ssS'YEAGER F SCOTT'
p266
(dp267
g3
I158403
sg4
F2417.1428571428573
sg5
F0.04045508274231678
sg6
I0
sg7
I360300
sg8
I0
sg9
I0
sg10
F0.22211652794292508
sg11
I11884758
sg12
F1783.0
sg13
I8308552
sg14
F300.35714285714283
sg15
I147950
sg16
F66.71428571428571
sg17
I01
sg18
I0
sg19
I53947
sg20
I3576206
sg21
F97.78571428571429
ssS'HIRKO JOSEPH'
p268
(dp269
g3
I0
sg4
F2417.1428571428573
sg5
F0.04045508274231678
sg6
I10259
sg7
I91093
sg8
I0
sg9
I0
sg10
F0.22211652794292508
sg11
I30766064
sg12
F1783.0
sg13
I30766064
sg14
F300.35714285714283
sg15
I2856
sg16
F66.71428571428571
sg17
I01
sg18
I0
sg19
I77978
sg20
I0
sg21
F97.78571428571429
ssS'DIETRICH JANET R'
p270
(dp271
g3
I250100
sg4
F2572.0
sg5
F0.11858475894245724
sg6
I0
sg7
I1410464
sg8
I600000
sg9
I0
sg10
F0.2222222222222222
sg11
I1865087
sg12
F1902.0
sg13
I1550019
sg14
F63.0
sg15
I473
sg16
F14.0
sg17
I00
sg18
I556416
sg19
I3475
sg20
I315068
sg21
F305.0
ssS'DERRICK JR. JAMES V'
p272
(dp273
g3
I492375
sg4
F2181.0
sg5
F0.029344337459880788
sg6
I0
sg7
I550981
sg8
I800000
sg9
I-1284000
sg10
F0.022002200220022004
sg11
I8831913
sg12
F1401.0
sg13
I8831913
sg14
F909.0
sg15
I7482
sg16
F20.0
sg17
I00
sg18
I484000
sg19
I51124
sg20
I1787380
sg21
F64.0
ssS'FREVERT MARK A'
p274
(dp275
g3
I1060932
sg4
F3275.0
sg5
F0.07389312977099237
sg6
I6426990
sg7
I17252530
sg8
I2000000
sg9
I-3367011
sg10
F0.2857142857142857
sg11
I14622185
sg12
F2979.0
sg13
I10433518
sg14
F21.0
sg15
I7427621
sg16
F6.0
sg17
I00
sg18
I1617011
sg19
I86987
sg20
I4188667
sg21
F242.0
ssS'PAI LOU L'
p276
(dp277
g3
I261879
sg4
F2007.111111111111
sg5
F0.029146368467670505
sg6
I0
sg7
I3123383
sg8
I1000000
sg9
I0
sg10
F0.054246017735872565
sg11
I23817930
sg12
F1058.5277777777778
sg13
I15364167
sg14
F668.7638888888889
sg15
I1829457
sg16
F36.27777777777778
sg17
I00
sg18
I0
sg19
I32047
sg20
I8453763
sg21
F58.5
ssS'BAY FRANKLIN R'
p278
(dp279
g3
I239671
sg4
F2007.111111111111
sg5
F0.029146368467670505
sg6
I260455
sg7
I827696
sg8
I400000
sg9
I-201641
sg10
F0.054246017735872565
sg11
I63014
sg12
F1058.5277777777778
sg13
I0
sg14
F668.7638888888889
sg15
I69
sg16
F36.27777777777778
sg17
I00
sg18
I0
sg19
I129142
sg20
I145796
sg21
F58.5
ssS'HAYSLETT RODERICK J'
p280
(dp281
g3
I0
sg4
F2649.0
sg5
F0.01321253303133258
sg6
I0
sg7
I0
sg8
I0
sg9
I0
sg10
F0.03581526861451461
sg11
I346663
sg12
F571.0
sg13
I0
sg14
F1061.0
sg15
I0
sg16
F38.0
sg17
I00
sg18
I0
sg19
I0
sg20
I346663
sg21
F35.0
ssS'FUGH JOHN L'
p282
(dp283
g3
I0
sg4
F2007.111111111111
sg5
F0.029146368467670505
sg6
I50591
sg7
I50591
sg8
I0
sg9
I0
sg10
F0.054246017735872565
sg11
I176378
sg12
F1058.5277777777778
sg13
I176378
sg14
F668.7638888888889
sg15
I0
sg16
F36.27777777777778
sg17
I00
sg18
I0
sg19
I0
sg20
I0
sg21
F58.5
ssS'FALLON JAMES B'
p284
(dp285
g3
I304588
sg4
F1755.0
sg5
F0.023931623931623933
sg6
I0
sg7
I3676340
sg8
I2500000
sg9
I0
sg10
F0.49333333333333335
sg11
I2332399
sg12
F1604.0
sg13
I940257
sg14
F75.0
sg15
I401481
sg16
F37.0
sg17
I00
sg18
I374347
sg19
I95924
sg20
I1392142
sg21
F42.0
ssS'KOENIG MARK E'
p286
(dp287
g3
I309946
sg4
F2374.0
sg5
F0.02232518955349621
sg6
I0
sg7
I1587421
sg8
I700000
sg9
I0
sg10
F0.2459016393442623
sg11
I1920055
sg12
F2271.0
sg13
I671737
sg14
F61.0
sg15
I150458
sg16
F15.0
sg17
I01
sg18
I300000
sg19
I127017
sg20
I1248318
sg21
F53.0
ssS'SAVAGE FRANK'
p288
(dp289
g3
I0
sg4
F2007.111111111111
sg5
F0.029146368467670505
sg6
I0
sg7
I3750
sg8
I0
sg9
I-121284
sg10
F0.054246017735872565
sg11
I0
sg12
F1058.5277777777778
sg13
I0
sg14
F668.7638888888889
sg15
I0
sg16
F36.27777777777778
sg17
I00
sg18
I0
sg19
I0
sg20
I0
sg21
F58.5
ssS'IZZO LAWRENCE L'
p290
(dp291
g3
I85274
sg4
F496.0
sg5
F0.056451612903225805
sg6
I0
sg7
I1979596
sg8
I0
sg9
I0
sg10
F0.2631578947368421
sg11
I5819980
sg12
F437.0
sg13
I2165172
sg14
F19.0
sg15
I1553729
sg16
F5.0
sg17
I00
sg18
I312500
sg19
I28093
sg20
I3654808
sg21
F28.0
ssS'TILNEY ELIZABETH A'
p292
(dp293
g3
I247338
sg4
F460.0
sg5
F0.021739130434782608
sg6
I0
sg7
I399393
sg8
I300000
sg9
I-575000
sg10
F0.5789473684210527
sg11
I1168042
sg12
F379.0
sg13
I591250
sg14
F19.0
sg15
I152055
sg16
F11.0
sg17
I00
sg18
I275000
sg19
I0
sg20
I576792
sg21
F10.0
ssS'MARTIN AMANDA K'
p294
(dp295
g3
I349487
sg4
F1522.0
sg5
F0.005256241787122208
sg6
I85430
sg7
I8407016
sg8
I0
sg9
I0
sg10
F0.0
sg11
I2070306
sg12
F477.0
sg13
I2070306
sg14
F230.0
sg15
I2818454
sg16
F0.0
sg17
I00
sg18
I5145434
sg19
I8211
sg20
I0
sg21
F8.0
ssS'BUY RICHARD B'
p296
(dp297
g3
I330546
sg4
F3523.0
sg5
F0.04428044280442804
sg6
I649584
sg7
I2355702
sg8
I900000
sg9
I-694862
sg10
F0.06742640075973409
sg11
I3444470
sg12
F2333.0
sg13
I2542813
sg14
F1053.0
sg15
I400572
sg16
F71.0
sg17
I00
sg18
I769862
sg19
I0
sg20
I901657
sg21
F156.0
ssS'GRAMM WENDY L'
p298
(dp299
g3
I0
sg4
F2007.111111111111
sg5
F0.029146368467670505
sg6
I0
sg7
I119292
sg8
I0
sg9
I0
sg10
F0.054246017735872565
sg11
I0
sg12
F1058.5277777777778
sg13
I0
sg14
F668.7638888888889
sg15
I0
sg16
F36.27777777777778
sg17
I00
sg18
I0
sg19
I0
sg20
I0
sg21
F58.5
ssS'CAUSEY RICHARD A'
p300
(dp301
g3
I415189
sg4
F1892.0
sg5
F0.0306553911205074
sg6
I0
sg7
I1868758
sg8
I1000000
sg9
I-235000
sg10
F0.24489795918367346
sg11
I2502063
sg12
F1585.0
sg13
I0
sg14
F49.0
sg15
I307895
sg16
F12.0
sg17
I01
sg18
I350000
sg19
I30674
sg20
I2502063
sg21
F58.0
ssS'TAYLOR MITCHELL S'
p302
(dp303
g3
I265214
sg4
F533.0
sg5
F0.0
sg6
I227449
sg7
I1092663
sg8
I600000
sg9
I0
sg10
F0.0
sg11
I3745048
sg12
F300.0
sg13
I3181250
sg14
F29.0
sg15
I0
sg16
F0.0
sg17
I00
sg18
I0
sg19
I0
sg20
I563798
sg21
F0.0
ssS'DONAHUE JR JEFFREY M'
p304
(dp305
g3
I278601
sg4
F865.0
sg5
F0.21734104046242775
sg6
I0
sg7
I875760
sg8
I800000
sg9
I-300000
sg10
F0.5
sg11
I1080988
sg12
F772.0
sg13
I765920
sg14
F22.0
sg15
I891
sg16
F11.0
sg17
I00
sg18
I0
sg19
I96268
sg20
I315068
sg21
F188.0
ssS'GLISAN JR BEN F'
p306
(dp307
g3
I274975
sg4
F873.0
sg5
F0.05956471935853379
sg6
I0
sg7
I1272284
sg8
I600000
sg9
I0
sg10
F0.375
sg11
I778546
sg12
F874.0
sg13
I384728
sg14
F16.0
sg15
I200308
sg16
F6.0
sg17
I01
sg18
I71023
sg19
I125978
sg20
I393818
sg21
F52.0
ss.