(dp0
S'METTS MARK'
p1
(dp2
S'salary'
p3
F0.9184403291167296
sS'to_messages'
p4
F-0.630263864365082
sS'fraction_messages_from_poi'
p5
F0.3930549820977248
sS'deferral_payments'
p6
F-0.2955368713001622
sS'total_payments'
p7
F-0.12431935976404587
sS'bonus'
p8
F-0.061843483111342676
sS'deferred_income'
p9
F0.32071903300808124
sS'fraction_messages_to_poi'
p10
F-0.5859454105085864
sS'total_stock_value'
p11
F-0.3891962430162495
sS'shared_receipt_with_poi'
p12
F-0.48949101802086536
sS'exercised_stock_options'
p13
F-0.4412844575944641
sS'from_messages'
p14
F-0.41934821902313657
sS'other'
p15
F-0.25900396979833495
sS'from_this_person_to_poi'
p16
F-0.5072066126503103
sS'poi'
p17
I00
sS'long_term_incentive'
p18
F-0.4920584003709368
sS'expenses'
p19
F1.2643004431083373
sS'restricted_stock'
p20
F-0.16050674540942367
sS'from_poi_to_this_person'
p21
F-0.37842804386478285
ssS'BAXTER JOHN C'
p22
(dp23
g3
F0.4158551311590242
sg4
F-0.025814628063763462
sg5
F-0.17740585222359698
sg6
F1.4287151025795273
sg7
F0.3983239389946165
sg8
F0.4264115393652265
sg9
F-1.974441604167149
sg10
F-0.4723600348145835
sg11
F1.216988648362028
sg12
F-0.0991481523209838
sg13
F0.9203702360473195
sg14
F0.03252638500205686
sg15
F2.0987523823064653
sg16
F-0.049375234408273655
sg17
I00
sg18
F1.8240524271470253
sg19
F-0.5488827106734983
sg20
F1.5238786763169718
sg21
F-0.07313261564498613
ssS'ELLIOTT STEVEN'
p24
(dp25
g3
F-0.07387082004794443
sg4
F-0.025814628063763462
sg5
F-0.17740585222359698
sg6
F-0.2955368713001622
sg7
F-0.2214868958779351
sg8
F-0.26528307580991317
sg9
F-0.3428458522054152
sg10
F-0.4723600348145835
sg11
F0.5858360741052475
sg12
F-0.0991481523209838
sg13
F0.5554846470058401
sg14
F0.03252638500205686
sg15
F-0.24905258477305325
sg16
F-0.049375234408273655
sg17
I00
sg18
F-0.4920584003709368
sg19
F0.920707919460609
sg20
F0.4431501627932733
sg21
F-0.07313261564498613
ssS'CORDES WILLIAM R'
p26
(dp27
g3
F-0.9444341859163362
sg4
F-0.651921290015356
sg5
F-0.6879562407039801
sg6
F-0.2955368713001622
sg7
F-0.24568728193009498
sg8
F-0.5500985055879118
sg9
F0.32071903300808124
sg10
F-0.7841281631643799
sg11
F-0.31669324381838576
sg12
F-1.194571578861228
sg13
F-0.3084218326270368
sg14
F-0.4313555679870954
sg15
F-0.2605470951832374
sg16
F-0.520184509986305
sg17
I00
sg18
F-0.4920584003709368
sg19
F-0.7932617203168942
sg20
F-0.26019928701392037
sg21
F-0.7954169214332857
ssS'HANNON KEVIN P'
p28
(dp29
g3
F0.29460134664880994
sg4
F-0.5103925316961232
sg5
F-0.13048724380414164
sg6
F-0.2955368713001622
sg7
F-0.21269063133942495
sg8
F0.6705390506035112
sg9
F-4.840721857030338
sg10
F2.987537348316191
sg11
F0.5398067668768581
sg12
F-0.12490743609564685
sg13
F0.6874926382592405
sg14
F-0.4172292750883203
sg15
F-0.25048130603459223
sg16
F-0.2476486659304155
sg17
I01
sg18
F1.8692573707187465
sg19
F-0.05054590699086261
sg20
F-0.02606200194181075
sg21
F-0.4677828033437477
ssS'MORDAUNT KRISTINA M'
p30
(dp31
g3
F0.4158092962201107
sg4
F-0.025814628063763462
sg5
F-0.17740585222359698
sg6
F-0.2955368713001622
sg7
F-0.1738465685411441
sg8
F-0.2856270350797702
sg9
F0.32071903300808124
sg10
F-0.4723600348145835
sg11
F-0.4494473213193902
sg12
F-0.0991481523209838
sg13
F-0.4412844575944641
sg14
F0.03252638500205686
sg15
F-0.25929574465559524
sg16
F-0.049375234408273655
sg17
I00
sg18
F-0.4920584003709368
sg19
F-0.02918456320149791
sg20
F-0.34940622019773343
sg21
F-0.07313261564498613
ssS'MEYER ROCKFORD G'
p32
(dp33
g3
F-0.9444341859163362
sg4
F-0.9198689748047935
sg5
F-1.104126480567054
sg6
F2.163917935865898
sg7
F-0.034433028006253856
sg8
F-0.5500985055879118
sg9
F0.32071903300808124
sg10
F-0.7841281631643799
sg11
F-0.3298637667668447
sg12
F-1.2339860201504407
sg13
F-0.34069959308184505
sg14
F-0.4200545336680753
sg15
F-0.2605470951832374
sg16
F-0.520184509986305
sg17
I00
sg18
F-0.4920584003709368
sg19
F-0.7932617203168942
sg20
F-0.2220488691216341
sg21
F-0.9443415205648937
ssS'MCMAHON JEFFREY'
p34
(dp35
g3
F0.9421726419319506
sg4
F0.1494034590447847
sg5
F-0.321054902273528
sg6
F-0.2955368713001622
sg7
F0.2229207753397101
sg8
F1.5656732584772215
sg9
F0.32071903300808124
sg10
F2.3289925764703767
sg11
F-0.21674146801153077
sg12
F1.1812433544052112
sg13
F-0.2162518388235997
sg14
F-0.4059282407693002
sg15
F0.0031615039988842257
sg16
F-0.1827591792504418
sg17
I00
sg18
F0.5226462610883356
sg19
F2.198373748806921
sg20
F-0.1736807269774828
sg21
F-0.08057884560156653
ssS'HORTON STANLEY C'
p36
(dp37
g3
F-0.9444341859163362
sg4
F0.1468851537366133
sg5
F-0.5088082344718584
sg6
F3.872061660899128
sg7
F0.1122875489180211
sg8
F-0.5500985055879118
sg9
F0.32071903300808124
sg10
F-0.7037838039795988
sg11
F0.6783063874096594
sg12
F-0.08220845803233297
sg13
F0.6207541631218091
sg14
F0.31804427029292487
sg15
F-0.2605470951832374
sg16
F-0.32551604994638395
sg17
I00
sg18
F-0.4920584003709368
sg19
F-0.7932617203168942
sg20
F0.572420828887863
sg21
F-0.2890732843858179
ssS'PIPER GREGORY F'
p38
(dp39
g3
F0.05930514135077469
sg4
F-0.41318594680070697
sg5
F0.46252924306612064
sg6
F1.2082137353464815
sg7
F-0.047074493570531936
sg8
F-0.22459515727019908
sg9
F0.26552310678656627
sg10
F0.4585312588935689
sg11
F-0.34195760042431106
sg12
F-0.4456971943661845
sg13
F-0.2618602953906188
sg14
F-0.28302949254995663
sg15
F-0.2598571230283787
sg16
F0.10275456214144243
sg17
I00
sg18
F-0.4920584003709368
sg19
F0.14622283488093601
sg20
F-0.24855134222778252
sg21
F-0.03590146586208409
ssS'HUMPHREY GENE E'
p40
(dp41
g3
F-0.27868679096849075
sg4
F-0.9722497252147586
sg5
F1.3798896386156694
sg6
F3.6493619601597334
sg7
F0.10867152146190526
sg8
F-0.5500985055879118
sg9
F0.32071903300808124
sg10
F4.963171663853633
sg11
F-0.11755084705045546
sg12
F-1.1277859977878395
sg13
F0.02399827412547769
sg14
F-0.4278239947624016
sg15
F-0.2605470951832374
sg16
F-0.29956025527439445
sg17
I00
sg18
F-0.4920584003709368
sg19
F-0.6842948654812585
sg20
F-0.4540064599736753
sg21
F-0.7954169214332857
ssS'UMANOFF ADAM S'
p42
(dp43
g3
F0.525283501429551
sg4
F-0.9808119632625414
sg5
F2.333214743815526
sg6
F-0.2955368713001622
sg7
F-0.11647442271691426
sg8
F0.09175340937607805
sg9
F0.32071903300808124
sg10
F-0.7841281631643799
sg11
F-0.48281044868822065
sg12
F-1.2131839539144673
sg13
F-0.4412844575944641
sg14
F-0.4271176801174629
sg15
F-0.2605470951832374
sg16
F-0.520184509986305
sg17
I00
sg18
F-0.4920584003709368
sg19
F0.36583665024350565
sg20
F-0.4540064599736753
sg21
F-0.765632001606964
ssS'BLACHMAN JEREMY M'
p44
(dp45
g3
F0.32135367266133275
sg4
F0.20984278644089838
sg5
F-0.7829607601070656
sg6
F-0.2955368713001622
sg7
F-0.015389561625910254
sg8
F0.14159610958722782
sg9
F0.32071903300808124
sg10
F0.03691466926676474
sg11
F-0.3301068178937607
sg12
F1.2885382223591793
sg13
F-0.2852953587194213
sg14
F-0.4299429386972179
sg15
F-0.2603058709851377
sg16
F-0.49422871531431556
sg17
I00
sg18
F0.722629508514246
sg19
F1.044119319330524
sg20
F-0.35917295593317927
sg21
F-0.5720300227358734
ssS'SUNDE MARTIN'
p46
(dp47
g3
F0.36688304531542637
sg4
F0.2964724890419947
sg5
F-0.6596874801722911
sg6
F-0.2955368713001622
sg7
F-0.06908544335003093
sg8
F0.019532353968085527
sg9
F0.32071903300808124
sg10
F1.1820533566049405
sg11
F-0.37097812898833576
sg12
F1.5502063186958979
sg13
F-0.4412844575944641
sg14
F-0.4129913872186878
sg15
F-0.16199814172281923
sg16
F-0.35147184461837344
sg17
I00
sg18
F0.2037014061185989
sg19
F-0.7932617203168942
sg20
F-0.10338922538444076
sg21
F-0.39332050377794364
ssS'GIBBS DANA R'
p48
(dp49
g3
F-0.9444341859163362
sg4
F-0.9515996216877531
sg5
F-1.104126480567054
sg6
F0.37595288090238954
sg7
F-0.13521281964219486
sg8
F-0.5500985055879118
sg9
F0.32071903300808124
sg10
F-0.7841281631643799
sg11
F-0.1278701994719124
sg12
F-1.2328911745590738
sg13
F0.010853057784257642
sg14
F-0.4313555679870954
sg15
F-0.2605470951832374
sg16
F-0.520184509986305
sg17
I00
sg18
F0.18247015290147614
sg19
F-0.7932617203168942
sg20
F-0.4540064599736753
sg21
F-0.9443415205648937
ssS'LOWRY CHARLES P'
p50
(dp51
g3
F-0.9444341859163362
sg4
F-0.025814628063763462
sg5
F-0.17740585222359698
sg6
F-0.2955368713001622
sg7
F-0.24568728193009498
sg8
F-0.5500985055879118
sg9
F0.32071903300808124
sg10
F-0.4723600348145835
sg11
F-0.4232549222275447
sg12
F-0.0991481523209838
sg13
F-0.36542017390036075
sg14
F0.03252638500205686
sg15
F-0.2605470951832374
sg16
F-0.049375234408273655
sg17
I00
sg18
F-0.4920584003709368
sg19
F-0.7932617203168942
sg20
F-0.3769089948631031
sg21
F-0.07313261564498613
ssS'COLWELL WESLEY'
p52
(dp53
g3
F0.5250441411930027
sg4
F-0.15128219475088095
sg5
F3.2365433249672617
sg6
F-0.2587959584004725
sg7
F-0.07533942432933864
sg8
F0.4264115393652265
sg9
F0.08216758179385235
sg10
F0.7963792892655738
sg11
F-0.3710866139547933
sg12
F-0.01870741373304566
sg13
F-0.4412844575944641
sg14
F-0.41157875792881027
sg15
F-0.17031860284991956
sg16
F-0.3774276392903629
sg17
I01
sg18
F-0.4920584003709368
sg19
F-0.43293359841947987
sg20
F-0.10372934798080587
sg21
F2.629848858593702
ssS'MULLER MARK S'
p54
(dp55
g3
F0.3371820048994673
sg4
F-0.9682204367216845
sg5
F1.701350548156963
sg6
F0.8261508239210656
sg7
F0.12031262439197148
sg8
F0.34503570228579833
sg9
F-0.8698690014703416
sg10
F-0.7841281631643799
sg11
F-0.2561043900518352
sg12
F-1.1332602257446747
sg13
F-0.22598117001972637
sg14
F-0.4285303094073404
sg15
F-0.25970724475823587
sg16
F-0.520184509986305
sg17
I00
sg18
F2.0277492089928506
sg19
F-0.7932617203168942
sg20
F-0.27314551687290906
sg21
F-0.765632001606964
ssS'JACKSON CHARLENE R'
p56
(dp57
g3
F0.525125625528849
sg4
F-0.9067737872023022
sg5
F1.9768237447758588
sg6
F-0.2955368713001622
sg7
F-0.18268752478326225
sg8
F-0.34665891288934136
sg9
F0.32071903300808124
sg10
F1.1658485638595888
sg11
F-0.3666875325642065
sg12
F-1.1299756889705737
sg13
F-0.4035641907165827
sg14
F-0.40027772360979014
sg15
F-0.25838760649804343
sg16
F-0.273604460602405
sg17
I00
sg18
F-0.4920584003709368
sg19
F-0.5711168366401608
sg20
F-0.18277524401214806
sg21
F-0.5720300227358734
ssS'WESTFAHL RICHARD K'
p58
(dp59
g3
F-0.6198005919048658
sg4
F-0.025814628063763462
sg5
F-0.17740585222359698
sg6
F-0.2955368713001622
sg7
F-0.15857446471973788
sg8
F-0.5500985055879118
sg9
F0.30283537407572103
sg10
F-0.4723600348145835
sg11
F-0.4212188290149008
sg12
F-0.0991481523209838
sg13
F-0.4412844575944641
sg14
F0.03252638500205686
sg15
F0.09519651725694125
sg16
F-0.049375234408273655
sg17
I00
sg18
F-0.11794353738531889
sg19
F0.33851856809408315
sg20
F-0.26090411333824626
sg21
F-0.07313261564498613
ssS'WALTERS GARETH W'
p60
(dp61
g3
F-0.9444341859163362
sg4
F-0.025814628063763462
sg5
F-0.17740585222359698
sg6
F-0.22417752851690023
sg7
F-0.2356962287015235
sg8
F-0.5500985055879118
sg9
F0.32071903300808124
sg10
F-0.4723600348145835
sg11
F-0.3179502613648321
sg12
F-0.0991481523209838
sg13
F-0.2312787576327177
sg14
F0.03252638500205686
sg15
F-0.2605470951832374
sg16
F-0.049375234408273655
sg17
I00
sg18
F-0.4920584003709368
sg19
F-0.05608807381670391
sg20
F-0.4540064599736753
sg21
F-0.07313261564498613
ssS'WALLS JR ROBERT H'
p62
(dp63
g3
F0.8741484998133009
sg4
F-0.6987617687473442
sg5
F-0.2985796735116732
sg6
F-0.2955368713001622
sg7
F-0.04008487114769275
sg8
F0.14159610958722782
sg9
F0.32071903300808124
sg10
F-0.7841281631643799
sg11
F0.46107228240069065
sg12
F-1.0226808210166054
sg13
F0.44464519704451927
sg14
F-0.3367094055653021
sg15
F-0.2605453214758984
sg16
F-0.520184509986305
sg17
I00
sg18
F0.29759848169883096
sg19
F0.3181391042541785
sg20
F0.324790509192697
sg21
F-0.6911697020411599
ssS'KITCHEN LOUISE'
p64
(dp65
g3
F0.4379577572573202
sg4
F3.1461867757687556
sg5
F-0.14318162954836014
sg6
F-0.2955368713001622
sg7
F0.15106771743927674
sg8
F1.9725524438743625
sg9
F0.32071903300808124
sg10
F-0.13888732610332988
sg11
F-0.3952635607789404
sg12
F2.758915851565091
sg13
F-0.42476615913222554
sg14
F0.7806803627278102
sg15
F-0.17724936427693821
sg16
F1.9975275731966744
sg17
I00
sg18
F-0.4920584003709368
sg19
F-0.6672756130239507
sg20
F-0.22018421471058822
sg21
F2.793665917638471
ssS'CHAN RONNIE'
p66
(dp67
g3
F-0.9444341859163362
sg4
F-0.025814628063763462
sg5
F-0.17740585222359698
sg6
F-0.2955368713001622
sg7
F-0.24568728193009498
sg8
F-0.5500985055879118
sg9
F0.1571431659734268
sg10
F-0.4723600348145835
sg11
F-0.48281044868822065
sg12
F-0.0991481523209838
sg13
F-0.4412844575944641
sg14
F0.03252638500205686
sg15
F-0.2605470951832374
sg16
F-0.049375234408273655
sg17
I00
sg18
F-0.4920584003709368
sg19
F-0.7932617203168942
sg20
F-0.4377227144308856
sg21
F-0.07313261564498613
ssS'BELFER ROBERT'
p68
(dp69
g3
F-0.9444341859163362
sg4
F-0.025814628063763462
sg5
F-0.17740585222359698
sg6
F-0.43193468268075624
sg7
F-0.2453118030391688
sg8
F-0.5500985055879118
sg9
F0.32071903300808124
sg10
F-0.4723600348145835
sg11
F-0.48281044868822065
sg12
F-0.0991481523209838
sg13
F-0.4412844575944641
sg14
F0.03252638500205686
sg15
F-0.2605470951832374
sg16
F-0.049375234408273655
sg17
I00
sg18
F-0.4920584003709368
sg19
F-0.7215844840063089
sg20
F-0.4318869531277657
sg21
F-0.07313261564498613
ssS'SHANKMAN JEFFREY A'
p70
(dp71
g3
F0.6043283999714065
sg4
F0.5855739384200719
sg5
F-0.17622576817939417
sg6
F-0.2955368713001622
sg7
F0.101639493356103
sg8
F1.0774182360006523
sg9
F0.32071903300808124
sg10
F-0.6061998208881788
sg11
F-0.15126967070311362
sg12
F0.6360102499044339
sg13
F-0.1473911489877548
sg14
F1.453798219354445
sg15
F-0.2594908524628817
sg16
F0.5569809689012583
sg17
I00
sg18
F0.3175621974104539
sg19
F3.11198031244787
sg20
F-0.13789461262010624
sg21
F0.45554971127222277
ssS'WODRASKA JOHN'
p72
(dp73
g3
F-0.9444341859163362
sg4
F-0.025814628063763462
sg5
F-0.17740585222359698
sg6
F-0.2955368713001622
sg7
F-0.22401774933391302
sg8
F-0.5500985055879118
sg9
F0.32071903300808124
sg10
F-0.4723600348145835
sg11
F-0.48281044868822065
sg12
F-0.0991481523209838
sg13
F-0.4412844575944641
sg14
F0.03252638500205686
sg15
F-0.09241471596142303
sg16
F-0.049375234408273655
sg17
I00
sg18
F-0.4920584003709368
sg19
F-0.7932617203168942
sg20
F-0.4540064599736753
sg21
F-0.07313261564498613
ssS'BERGSIEKER RICHARD P'
p74
(dp75
g3
F0.012609524139881555
sg4
F-0.8438161544980171
sg5
F-0.7720595737729146
sg6
F-0.2955368713001622
sg7
F-0.17495208812502175
sg8
F-0.34665891288934136
sg9
F-0.48373596670550156
sg10
F-0.7841281631643799
sg11
F-0.37732577958470465
sg12
F-1.002973600371999
sg13
F-0.4412844575944641
sg14
F-0.3981587796749739
sg15
F0.11841966744605331
sg16
F-0.520184509986305
sg17
I00
sg18
F-0.22883992644656934
sg19
F0.49791041322310164
sg20
F-0.12329041051777435
sg21
F-0.8847716809122506
ssS'URQUHART JOHN A'
p76
(dp77
g3
F-0.9444341859163362
sg4
F-0.025814628063763462
sg5
F-0.17740585222359698
sg6
F-0.2955368713001622
sg7
F-0.21955166510098803
sg8
F-0.5500985055879118
sg9
F0.2600040109327184
sg10
F-0.4723600348145835
sg11
F-0.48281044868822065
sg12
F-0.0991481523209838
sg13
F-0.4412844575944641
sg14
F0.03252638500205686
sg15
F-0.2605470951832374
sg16
F-0.049375234408273655
sg17
I00
sg18
F-0.4920584003709368
sg19
F4.195910317988493
sg20
F-0.4540064599736753
sg21
F-0.07313261564498613
ssS'BIBI PHILIPPE A'
p78
(dp79
g3
F0.143509016905896
sg4
F-0.22733501505765735
sg5
F-0.64905843732661
sg6
F-0.2955368713001622
sg7
F-0.011645288411615046
sg8
F0.26365986520637014
sg9
F0.32071903300808124
sg10
F0.36533180223922274
sg11
F-0.18778638244349596
sg12
F0.20464108690582697
sg13
F-0.14253280193134057
sg14
F-0.41157875792881027
sg15
F0.11697586967213311
sg16
F-0.4163613312983471
sg17
I00
sg18
F0.04784394302873626
sg19
F0.0480784790437936
sg20
F-0.2643394518926832
sg21
F-0.601814942562195
ssS'PIRO JIM'
p80
(dp81
g3
F-0.9444341859163362
sg4
F-1.0075059995291584
sg5
F-1.104126480567054
sg6
F-0.2955368713001622
sg7
F-0.24568728193009498
sg8
F-0.5500985055879118
sg9
F0.32071903300808124
sg10
F-0.4249219239757541
sg11
F-0.4752414621789158
sg12
F-1.2547880863864143
sg13
F-0.4412844575944641
sg14
F-0.4285303094073404
sg15
F-0.2605470951832374
sg16
F-0.5072066126503103
sg17
I00
sg18
F-0.4920584003709368
sg19
F-0.7932617203168942
sg20
F-0.43027613652462654
sg21
F-0.9443415205648937
ssS'RIEKER PAULA H'
p82
(dp83
g3
F0.3246894376600387
sg4
F-0.3678564512536217
sg5
F-0.26614513915601484
sg6
F-0.009862633723936209
sg7
F-0.12005901738916262
sg8
F0.019532353968085527
sg9
F0.1551295984491907
sg10
F2.5801449063095787
sg11
F-0.17577447253651082
sg12
F0.1192431307791992
sg13
F-0.10798383148955368
sg14
F-0.38191354284138246
sg15
F-0.25881773052774326
sg16
F0.10275456214144243
sg17
I01
sg18
F-0.4920584003709368
sg19
F-0.06730332479498119
sg20
F-0.31171230903508174
sg21
F-0.4231054236042653
ssS'WHALEY DAVID A'
p84
(dp85
g3
F-0.9444341859163362
sg4
F-0.025814628063763462
sg5
F-0.17740585222359698
sg6
F-0.2955368713001622
sg7
F-0.24568728193009498
sg8
F-0.5500985055879118
sg9
F0.32071903300808124
sg10
F-0.4723600348145835
sg11
F-0.4670148455632089
sg12
F-0.0991481523209838
sg13
F-0.42116336744867217
sg14
F0.03252638500205686
sg15
F-0.2605470951832374
sg16
F-0.049375234408273655
sg17
I00
sg18
F-0.4920584003709368
sg19
F-0.7932617203168942
sg20
F-0.4540064599736753
sg21
F-0.07313261564498613
ssS'BECK SALLY W'
p86
(dp87
g3
F0.2336765272907649
sg4
F2.6475623247508175
sg5
F-0.478215542648039
sg6
F-0.2955368713001622
sg7
F-0.13492180921409805
sg8
F0.019532353968085527
sg9
F0.32071903300808124
sg10
F-0.2733158828906168
sg11
F-0.46264520552045124
sg12
F1.6312248924570574
sg13
F-0.4412844575944641
sg14
F2.6276931592426576
sg15
F-0.26004513600630935
sg16
F4.489283861707664
sg17
I00
sg18
F-0.4920584003709368
sg19
F0.017814757045990913
sg20
F-0.3907842911652602
sg21
F1.2001727069302637
ssS'HAUG DAVID L'
p88
(dp89
g3
F-0.9444341859163362
sg4
F-0.7481205527875037
sg5
F-0.882169019306748
sg6
F-0.2955368713001622
sg7
F-0.2456329889397784
sg8
F-0.5500985055879118
sg9
F0.32071903300808124
sg10
F1.333298088894888
sg11
F-0.12802636662126723
sg12
F-0.7424003496266476
sg13
F-0.4412844575944641
sg14
F-0.4264113654725241
sg15
F-0.2605470951832374
sg16
F-0.4293392286343418
sg17
I00
sg18
F-0.4920584003709368
sg19
F-0.7828974319614823
sg20
F0.658314325863724
sg21
F-0.8847716809122506
ssS'ECHOLS JOHN B'
p90
(dp91
g3
F-0.016302136772566953
sg4
F-0.025814628063763462
sg5
F-0.17740585222359698
sg6
F-0.2955368713001622
sg7
F0.06204813040900169
sg8
F-0.38734683142905546
sg9
F0.32071903300808124
sg10
F-0.4723600348145835
sg11
F-0.32137249803532536
sg12
F-0.0991481523209838
sg13
F-0.3186970042920793
sg14
F0.03252638500205686
sg15
F-0.212856539106727
sg16
F-0.049375234408273655
sg17
I00
sg18
F2.771374619578325
sg19
F-0.32348671338633045
sg20
F-0.24958023816457434
sg21
F-0.07313261564498613
ssS'MENDELSOHN JOHN'
p92
(dp93
g3
F-0.9444341859163362
sg4
F-0.025814628063763462
sg5
F-0.17740585222359698
sg6
F-0.2955368713001622
sg7
F-0.24567036537732265
sg8
F-0.5500985055879118
sg9
F0.1489199946532323
sg10
F-0.4723600348145835
sg11
F-0.48281044868822065
sg12
F-0.0991481523209838
sg13
F-0.4412844575944641
sg14
F0.03252638500205686
sg15
F-0.2605470951832374
sg16
F-0.049375234408273655
sg17
I00
sg18
F-0.4920584003709368
sg19
F-0.7900324262608922
sg20
F-0.4540064599736753
sg21
F-0.07313261564498613
ssS'HICKERSON GARY J'
p94
(dp95
g3
F0.1341535965965481
sg4
F-0.3718857397466959
sg5
F-0.14062931918708865
sg6
F-0.2955368713001622
sg7
F-0.007735850205725219
sg8
F0.8332907247623675
sg9
F0.32071903300808124
sg10
F-0.5712652066081573
sg11
F-0.41223185759004
sg12
F-0.2727115909301949
sg13
F-0.4412844575944641
sg14
F-0.4207608483130141
sg15
F-0.25883014647911606
sg16
F-0.5072066126503103
sg17
I00
sg18
F-0.39097228430732245
sg19
F1.3635794157759669
sg20
F-0.23272811666060225
sg21
F-0.3486431240384612
ssS'CLINE KENNETH W'
p96
(dp97
g3
F-0.9444341859163362
sg4
F-0.025814628063763462
sg5
F-0.17740585222359698
sg6
F-0.2955368713001622
sg7
F-0.24568728193009498
sg8
F-0.5500985055879118
sg9
F0.32071903300808124
sg10
F-0.4723600348145835
sg11
F-0.4524861804388033
sg12
F-0.0991481523209838
sg13
F-0.4412844575944641
sg14
F0.03252638500205686
sg15
F-0.2605470951832374
sg16
F-0.049375234408273655
sg17
I00
sg18
F-0.4920584003709368
sg19
F-0.7932617203168942
sg20
F-0.12186721316395753
sg21
F-0.07313261564498613
ssS'RICE KENNETH D'
p98
(dp99
g3
F1.1977686323976835
sg4
F-0.5809050803249225
sg5
F0.3714614373032577
sg6
F-0.2955368713001622
sg7
F-0.18795954559454964
sg8
F0.8739786433020817
sg9
F-5.48217392915284
sg10
F0.49304957617295625
sg11
F3.1241609189863677
sg12
F-0.3121260322194077
sg13
F3.5932419665286095
sg14
F-0.4271176801174629
sg15
F-0.10549048646429739
sg16
F-0.46827292064232606
sg17
I01
sg18
F1.8692573707187465
sg19
F0.23116636028644852
sg20
F0.9247261350652518
sg21
F-0.31885820421213956
ssS'HAYES ROBERT E'
p100
(dp101
g3
F-0.9444341859163362
sg4
F-0.7828731660402691
sg5
F-0.09474850197851895
sg6
F-0.2849430861645436
sg7
F-0.24477733141238925
sg8
F-0.5500985055879118
sg9
F0.32071903300808124
sg10
F-0.7841281631643799
sg11
F-0.4585824595273479
sg12
F-1.203330343592164
sg13
F-0.4412844575944641
sg14
F-0.4313555679870954
sg15
F-0.2605470951832374
sg16
F-0.520184509986305
sg17
I00
sg18
F-0.4920584003709368
sg19
F-0.7932617203168942
sg20
F-0.3780467500969616
sg21
F-0.7060621619543207
ssS'KOPPER MICHAEL J'
p102
(dp103
g3
F0.19789981108326962
sg4
F0.18070239644634367
sg5
F0.18215931315820283
sg6
F-0.2955368713001622
sg7
F0.057509007816471884
sg8
F0.10090819104751372
sg9
F0.32071903300808124
sg10
F0.492442119459835
sg11
F-0.3251981131725436
sg12
F0.6940370662468861
sg13
F-0.4412844575944641
sg14
F-0.2276846950143984
sg15
F0.5442743835809712
sg16
F0.34562664085791533
sg17
I01
sg18
F0.3880200512155957
sg19
F1.7843695230056893
sg20
F0.04014050365864724
sg21
F0.5119283095149031
ssS'LEFF DANIEL P'
p104
(dp105
g3
F0.4496915016191806
sg4
F0.38461317482799384
sg5
F-0.34923908729593306
sg6
F-0.2955368713001622
sg7
F0.058836728607034594
sg8
F0.26365986520637014
sg9
F0.32071903300808124
sg10
F0.49304957617295625
sg11
F-0.42512332776342227
sg12
F1.6673547969721692
sg13
F-0.4412844575944641
sg14
F-0.39533352109521885
sg15
F-0.2578129253202177
sg16
F-0.3384939472823787
sg17
I00
sg18
F1.5339557328007334
sg19
F-0.7932617203168942
sg20
F-0.27314551687290906
sg21
F0.053453293616880795
ssS'LAVORATO JOHN J'
p106
(dp107
g3
F0.7834818978713737
sg4
F2.6193573052992978
sg5
F1.2085852620813158
sg6
F-0.2955368713001622
sg7
F0.9459875051097351
sg8
F5.959968460766344
sg9
F0.32071903300808124
sg10
F0.12965915942919964
sg11
F0.3439704414613559
sg12
F3.0797056098356284
sg13
F0.40641822389116183
sg14
F1.385992013440324
sg15
F-0.25917069828819794
sg16
F4.813731295107533
sg17
I00
sg18
F2.480200226293025
sg19
F0.2876135476031865
sg20
F0.05173727955860623
sg21
F6.918877313584017
ssS'BERBERIAN DAVID'
p108
(dp109
g3
F0.15856834072448156
sg4
F-0.025814628063763462
sg5
F-0.17740585222359698
sg6
F-0.2955368713001622
sg7
F-0.2195724678888567
sg8
F-0.5500985055879118
sg9
F0.32071903300808124
sg10
F-0.4723600348145835
sg11
F-0.08381362255540406
sg12
F-0.0991481523209838
sg13
F-0.11019369047535846
sg14
F0.03252638500205686
sg15
F-0.2605470951832374
sg16
F-0.049375234408273655
sg17
I00
sg18
F-0.4920584003709368
sg19
F-0.5337835790062456
sg20
F-0.017957251695682904
sg21
F-0.07313261564498613
ssS'DETMERING TIMOTHY J'
p110
(dp111
g3
F0.1275941075609248
sg4
F-0.025814628063763462
sg5
F-0.17740585222359698
sg6
F0.8692432173448488
sg7
F-0.10800220160481983
sg8
F-0.20425119800034203
sg9
F-0.9629981553606073
sg10
F-0.4723600348145835
sg11
F-0.15833719425537127
sg12
F-0.0991481523209838
sg13
F-0.027957055616137896
sg14
F0.03252638500205686
sg15
F-0.2595671218784574
sg16
F-0.049375234408273655
sg17
I00
sg18
F0.11492413064698727
sg19
F0.3469190965505749
sg20
F-0.2959507871247642
sg21
F-0.07313261564498613
ssS'WAKEHAM JOHN'
p112
(dp113
g3
F-0.9444341859163362
sg4
F-0.025814628063763462
sg5
F-0.17740585222359698
sg6
F-0.2955368713001622
sg7
F-0.2213330466885328
sg8
F-0.5500985055879118
sg9
F0.32071903300808124
sg10
F-0.4723600348145835
sg11
F-0.48281044868822065
sg12
F-0.0991481523209838
sg13
F-0.4412844575944641
sg14
F0.03252638500205686
sg15
F-0.2605470951832374
sg16
F-0.049375234408273655
sg17
I00
sg18
F-0.4920584003709368
sg19
F1.4710189018013313
sg20
F-0.4540064599736753
sg21
F-0.07313261564498613
ssS'POWERS WILLIAM'
p114
(dp115
g3
F-0.9444341859163362
sg4
F-0.7078276678567612
sg5
F-1.104126480567054
sg6
F-0.2955368713001622
sg7
F-0.24568728193009498
sg8
F-0.5500985055879118
sg9
F0.29174088196027537
sg10
F-0.7841281631643799
sg11
F-0.48281044868822065
sg12
F-1.244934476064111
sg13
F-0.4412844575944641
sg14
F-0.42146716295795283
sg15
F-0.2605470951832374
sg16
F-0.520184509986305
sg17
I00
sg18
F-0.4920584003709368
sg19
F-0.7932617203168942
sg20
F-0.4540064599736753
sg21
F-0.9443415205648937
ssS'GOLD JOSEPH'
p116
(dp117
g3
F0.4452811619415022
sg4
F-0.025814628063763462
sg5
F-0.17740585222359698
sg6
F-0.2955368713001622
sg7
F-0.00028605182706599994
sg8
F0.06022027250779963
sg9
F0.32071903300808124
sg10
F-0.4723600348145835
sg11
F-0.3423862600484111
sg12
F-0.0991481523209838
sg13
F-0.35231225733726307
sg14
F0.03252638500205686
sg15
F0.4660414739810961
sg16
F-0.049375234408273655
sg17
I00
sg18
F-0.04695267529733442
sg19
F-0.7932617203168942
sg20
F-0.23272811666060225
sg21
F-0.07313261564498613
ssS'BANNANTINE JAMES M'
p118
(dp119
g3
F-0.9420049341539198
sg4
F-0.7516461802189437
sg5
F1.0867230718994045
sg6
F-0.2955368713001622
sg7
F-0.14096501908994521
sg8
F-0.5500985055879118
sg9
F0.31226734826819547
sg10
F-0.7841281631643799
sg11
F0.35618588068594287
sg12
F-0.7489694231748497
sg13
F0.38341913993614984
sg14
F-0.41934821902313657
sg15
F0.5061582997202118
sg16
F-0.520184509986305
sg17
I00
sg18
F-0.4920584003709368
sg19
F0.4352010137842517
sg20
F0.4276796012161294
sg21
F-0.363535583951622
ssS'DUNCAN JOHN H'
p120
(dp121
g3
F-0.9444341859163362
sg4
F-0.025814628063763462
sg5
F-0.17740585222359698
sg6
F-0.2955368713001622
sg7
F-0.2368298663393335
sg8
F-0.5500985055879118
sg9
F0.2793216743683586
sg10
F-0.4723600348145835
sg11
F-0.42332772556049186
sg12
F-0.0991481523209838
sg13
F-0.36551291378585615
sg14
F0.03252638500205686
sg15
F-0.2605470951832374
sg16
F-0.049375234408273655
sg17
I00
sg18
F-0.4920584003709368
sg19
F-0.7932617203168942
sg20
F-0.4540064599736753
sg21
F-0.07313261564498613
ssS'SHAPIRO RICHARD S'
p122
(dp123
g3
F0.4259082610940556
sg4
F6.593243081593773
sg5
F-0.9488119338583687
sg6
F-0.2955368713001622
sg7
F-0.12480845388102399
sg8
F-0.021155564571628576
sg9
F0.32071903300808124
sg10
F-0.4766594481387249
sg11
F-0.3248830587493062
sg12
F3.698293368957996
sg13
F-0.31739273500134285
sg14
F0.41834094987422826
sg15
F-0.25992186334625106
sg16
F0.323378816853353
sg17
I00
sg18
F-0.4920584003709368
sg19
F2.212752835177903
sg20
F-0.2637966603745902
sg21
F0.1577005130090065
ssS'SHERRIFF JOHN R'
p124
(dp125
g3
F1.239244159343426
sg4
F0.5684494623245063
sg5
F-0.8247818376065621
sg6
F-0.2955368713001622
sg7
F0.24985204165427735
sg8
F0.6705390506035112
sg9
F0.32071903300808124
sg10
F0.6526967935901233
sg11
F0.017849591601347886
sg12
F1.0443876554843332
sg13
F-0.06715382300067581
sg14
F-0.3748503963919949
sg15
F1.3820708554839396
sg16
F-0.22169287125842602
sg17
I00
sg18
F0.3175621974104539
sg19
F-0.7932617203168942
sg20
F0.19484712274157978
sg21
F-0.527352642996391
ssS'SHELBY REX'
p126
(dp127
g3
F0.13443879177201
sg4
F-0.9233946022362334
sg5
F0.7329414404640799
sg6
F-0.2955368713001622
sg7
F-0.016641157928997515
sg8
F-0.38734683142905546
sg9
F0.31381892127001226
sg10
F1.2790051080728555
sg11
F-0.08381362255540406
sg12
F-1.1584416743461161
sg13
F-0.11019369047535846
sg14
F-0.412285072573749
sg15
F1.1347610675042494
sg16
F-0.3384939472823787
sg17
I01
sg18
F-0.4920584003709368
sg19
F-0.29394303668479843
sg20
F-0.017957251695682904
sg21
F-0.7507395416938032
ssS'LEMAISTRE CHARLES'
p128
(dp129
g3
F-0.9444341859163362
sg4
F-0.025814628063763462
sg5
F-0.17740585222359698
sg6
F-0.2955368713001622
sg7
F-0.2356868560168794
sg8
F-0.5500985055879118
sg9
F0.2793216743683586
sg10
F-0.4723600348145835
sg11
F-0.4167469442913668
sg12
F-0.0991481523209838
sg13
F-0.3571300434327683
sg14
F0.03252638500205686
sg15
F-0.2605470951832374
sg16
F-0.049375234408273655
sg17
I00
sg18
F-0.4920584003709368
sg19
F-0.7932617203168942
sg20
F-0.4540064599736753
sg21
F-0.07313261564498613
ssS'DEFFNER JOSEPH M'
p130
(dp131
g3
F0.10529286339400351
sg4
F-0.6771043430970701
sg5
F4.016982381389486
sg6
F-0.2955368713001622
sg7
F-0.10753745360770998
sg8
F-0.061843483111342676
sg9
F0.32071903300808124
sg10
F-0.47346330764989275
sg11
F-0.45733552244238657
sg12
F-0.6537178567259188
sg13
F-0.4377424054403122
sg14
F-0.38756406000089255
sg15
F-0.2378853233669088
sg16
F-0.46827292064232606
sg17
I00
sg18
F-0.002349373951726203
sg19
F0.11499905248810569
sg20
F-0.38285512043053027
sg21
F0.7682913694485999
ssS'KISHKILL JOSEPH G'
p132
(dp133
g3
F-0.05703921192470287
sg4
F-0.025814628063763462
sg5
F-0.17740585222359698
sg6
F-0.2955368713001622
sg7
F-0.165116941504433
sg8
F-0.5500985055879118
sg9
F0.2361988738205323
sg10
F-0.4723600348145835
sg11
F-0.31730751193966983
sg12
F-0.0991481523209838
sg13
F-0.4412844575944641
sg14
F0.03252638500205686
sg15
F0.15215646788690002
sg16
F-0.049375234408273655
sg17
I00
sg18
F-0.4920584003709368
sg19
F1.745116144581719
sg20
F0.06487915515886689
sg21
F-0.07313261564498613
ssS'WHALLEY LAWRENCE G'
p134
(dp135
g3
F1.654732787823468
sg4
F1.9948175888727895
sg5
F-0.12158028077469198
sg6
F-0.2955368713001622
sg7
F0.2889642546742059
sg8
F1.8911766067949343
sg9
F0.32071903300808124
sg10
F-0.5360432785448973
sg11
F0.4898960019547702
sg12
F3.0337220949982133
sg13
F0.2278613324846417
sg14
F-0.04712040114041206
sg15
F0.006418917526899523
sg16
F-0.2087149739224313
sg17
I00
sg18
F0.6883665678557859
sg19
F0.46873766894692126
sg20
F0.9487118012894479
sg21
F1.825656023283018
ssS'MCCARTY DANNY J'
p136
(dp137
g3
F-0.9444341859163362
sg4
F-0.3149720397820222
sg5
F-0.5494264399958947
sg6
F-0.2955368713001622
sg7
F-0.24568728193009498
sg8
F-0.5500985055879118
sg9
F0.32071903300808124
sg10
F-0.7306649089595613
sg11
F-0.3613759293982399
sg12
F-0.7018910627460678
sg13
F-0.30586893797686115
sg14
F-0.2879736950645279
sg15
F-0.2605470951832374
sg16
F-0.49422871531431556
sg17
I00
sg18
F-0.4920584003709368
sg19
F-0.7932617203168942
sg20
F-0.40657189917441405
sg21
F-0.5720300227358734
ssS'MCCONNELL MICHAEL S'
p138
(dp139
g3
F0.9146207508739365
sg4
F0.6399693330765742
sg5
F-0.22543096180779457
sg6
F-0.2955368713001622
sg7
F-0.005499207606746996
sg8
F0.34503570228579833
sg9
F0.32071903300808124
sg10
F-0.37749936431627834
sg11
F0.013416908672477756
sg12
F1.1385443763418972
sg13
F-0.11047619043425215
sg14
F1.4968834126957091
sg15
F-0.2600681942017159
sg16
F1.9975275731966744
sg17
I00
sg18
F0.3175621974104539
sg19
F0.9820645065246474
sg20
F0.2875756792682882
sg21
F0.4257647914459012
ssS'DELAINEY DAVID W'
p140
(dp141
g3
F0.9152573472477353
sg4
F0.5211053225308839
sg5
F-0.4256600022335382
sg6
F-0.2955368713001622
sg7
F0.2970116188494441
sg8
F1.8911766067949343
sg9
F0.32071903300808124
sg10
F0.3563428680034173
sg11
F0.09549778634701325
sg12
F1.0378185819361312
sg13
F0.02569918477264066
sg14
F1.7278483015906823
sg15
F-0.2590740312382242
sg16
F7.3833549676344905
sg17
I01
sg18
F1.3989980355849652
sg19
F1.0870165633447129
sg20
F0.2097583381609846
sg21
F0.03856083370371998
ssS'SULLIVAN-SHAKLOVITZ COLLEEN'
p142
(dp143
g3
F-0.11543801687151405
sg4
F-0.025814628063763462
sg5
F-0.17740585222359698
sg6
F-0.05335690167490905
sg7
F-0.131459859549449
sg8
F-0.4687226685084837
sg9
F0.32071903300808124
sg10
F-0.4723600348145835
sg11
F-0.26482046907520246
sg12
F-0.0991481523209838
sg13
F-0.16359983890918567
sg14
F0.03252638500205686
sg15
F-0.26040342488878093
sg16
F-0.049375234408273655
sg17
I00
sg18
F0.3175621974104539
sg19
F-0.7932617203168942
sg20
F-0.4540064599736753
sg21
F-0.07313261564498613
ssS'WROBEL BRUCE'
p144
(dp145
g3
F-0.9444341859163362
sg4
F-0.025814628063763462
sg5
F-0.17740585222359698
sg6
F-0.2955368713001622
sg7
F-0.24568728193009498
sg8
F-0.5500985055879118
sg9
F0.32071903300808124
sg10
F-0.4723600348145835
sg11
F-0.4605486295388974
sg12
F-0.0991481523209838
sg13
F-0.4129264350252869
sg14
F0.03252638500205686
sg15
F-0.2605470951832374
sg16
F-0.049375234408273655
sg17
I00
sg18
F-0.4920584003709368
sg19
F-0.7932617203168942
sg20
F-0.4540064599736753
sg21
F-0.07313261564498613
ssS'FOY JOE'
p146
(dp147
g3
F-0.9444341859163362
sg4
F-1.0080096605907927
sg5
F-1.104126480567054
sg6
F-0.05367361073938302
sg7
F-0.22491249781433012
sg8
F-0.5500985055879118
sg9
F0.32071903300808124
sg10
F-0.7841281631643799
sg11
F-0.42785849297968426
sg12
F-1.2558829319777813
sg13
F-0.3712843920225328
sg14
F-0.43064925334215665
sg15
F-0.2605470951832374
sg16
F-0.520184509986305
sg17
I00
sg18
F-0.4920584003709368
sg19
F-0.7932617203168942
sg20
F-0.4540064599736753
sg21
F-0.9443415205648937
ssS'MEYER JEROME J'
p148
(dp149
g3
F-0.9444341859163362
sg4
F-0.025814628063763462
sg5
F-0.17740585222359698
sg6
F-0.2955368713001622
sg7
F-0.2454414204097351
sg8
F-0.5500985055879118
sg9
F0.25722210843212906
sg10
F-0.4723600348145835
sg11
F-0.48281044868822065
sg12
F-0.0991481523209838
sg13
F-0.4412844575944641
sg14
F0.03252638500205686
sg15
F-0.2605470951832374
sg16
F-0.049375234408273655
sg17
I00
sg18
F-0.4920584003709368
sg19
F-0.7463278587327027
sg20
F-0.4540064599736753
sg21
F-0.07313261564498613
ssS'LAY KENNETH L'
p150
(dp151
g3
F4.516651095270505
sg4
F1.1154253752593353
sg5
F-0.18888309698613207
sg6
F-0.025521102470428405
sg7
F11.5913039570911
sg8
F5.146210089972062
sg9
F-0.17604927066859036
sg10
F1.7702273155102923
sg11
F7.37516177042453
sg12
F1.3816000976253762
sg13
F6.55973795803671
sg14
F-0.4144040165085653
sg15
F8.927016583328165
sg16
F-0.3125381526103892
sg17
I01
sg18
F4.765009594789801
sg19
F1.3850280377830613
sg20
F6.951282168385072
sg21
F0.8874310487538865
ssS'BUTTS ROBERT H'
p152
(dp153
g3
F0.3874069124067013
sg4
F-0.025814628063763462
sg5
F-0.17740585222359698
sg6
F-0.2955368713001622
sg7
F-0.10034414674540947
sg8
F0.06022027250779963
sg9
F0.19652695708891332
sg10
F-0.4723600348145835
sg11
F-0.4159883495627896
sg12
F-0.0991481523209838
sg13
F-0.4412844575944641
sg14
F0.03252638500205686
sg15
F-0.1269372687534327
sg16
F-0.049375234408273655
sg17
I00
sg18
F-0.23650648393951207
sg19
F-0.5879397131075768
sg20
F-0.24450548862942767
sg21
F-0.07313261564498613
ssS'OLSON CINDY K'
p154
(dp155
g3
F0.7314847060594837
sg4
F-0.44038364412895814
sg5
F-0.567041914257276
sg6
F-0.19211938535621836
sg7
F-0.094631952658945
sg8
F0.06022027250779963
sg9
F0.32071903300808124
sg10
F0.8737467869369698
sg11
F-0.06570927373567809
sg12
F-0.3208847969503439
sg13
F-0.10761776372175204
sg14
F-0.40310298218954516
sg15
F-0.25968507341649877
sg16
F-0.32551604994638395
sg17
I00
sg18
F-0.3460287338386941
sg19
F0.5986294764832727
sg20
F0.03246366576458347
sg21
F-0.6464923223016775
ssS'MCDONALD REBECCA'
p156
(dp157
g3
F-0.9444341859163362
sg4
F-0.5864453520028996
sg5
F0.8164014182909979
sg6
F-0.2955368713001622
sg7
F-0.24568728193009498
sg8
F-0.5500985055879118
sg9
F0.32071903300808124
sg10
F-0.3420281764706866
sg11
F-0.21217949916393244
sg12
F-0.46978379737625897
sg13
F-0.28692839599983705
sg14
F-0.43064925334215665
sg15
F-0.2605470951832374
sg16
F-0.5072066126503103
sg17
I00
sg18
F-0.4920584003709368
sg19
F-0.7932617203168942
sg20
F0.014572615208882585
sg21
F-0.1401486852542098
ssS'CUMBERLAND MICHAEL S'
p158
(dp159
g3
F-0.0027859225640698
sg4
F-0.025814628063763462
sg5
F-0.17740585222359698
sg6
F-0.2955368713001622
sg7
F-0.15333707712122085
sg8
F-0.2856270350797702
sg9
F0.32071903300808124
sg10
F-0.4723600348145835
sg11
F-0.4495385254947306
sg12
F-0.0991481523209838
sg13
F-0.4412844575944641
sg14
F0.03252638500205686
sg15
F-0.25991476851689516
sg16
F-0.049375234408273655
sg17
I00
sg18
F-0.09047681740726936
sg19
F-0.30572559607831934
sg20
F-0.3496921639734386
sg21
F-0.07313261564498613
ssS'GAHN ROBERT S'
p160
(dp161
g3
F0.033418586406618316
sg4
F-0.025814628063763462
sg5
F-0.17740585222359698
sg6
F-0.19823266872677883
sg7
F-0.1427494868053606
sg8
F-0.13518752507103132
sg9
F0.3189935910999776
sg10
F-0.4723600348145835
sg11
F-0.4318309948413981
sg12
F-0.0991481523209838
sg13
F-0.42431876561868176
sg14
F0.03252638500205686
sg15
F-0.19266110734523384
sg16
F-0.049375234408273655
sg17
I00
sg18
F-0.4920584003709368
sg19
F0.2994615656600047
sg20
F-0.3359317468373104
sg21
F-0.07313261564498613
ssS'MCCLELLAN GEORGE'
p162
(dp163
g3
F0.39706789897547257
sg4
F-0.1583334496137609
sg5
F-0.15609831031016147
sg6
F-0.2955368713001622
sg7
F-0.09495130974303868
sg8
F0.18228402812694194
sg9
F0.11373223980946806
sg10
F-0.7841281631643799
sg11
F-0.3311457454560158
sg12
F0.35025555055764096
sg13
F-0.3379936266646209
sg14
F-0.4052219261243614
sg15
F-0.21479697493555833
sg16
F-0.520184509986305
sg17
I00
sg18
F-0.4920584003709368
sg19
F4.198245010312765
sg20
F-0.23272811666060225
sg21
F-0.16993360508053143
ssS'HERMANN ROBERT J'
p164
(dp165
g3
F0.3932483207326795
sg4
F-0.025814628063763462
sg5
F-0.17740585222359698
sg6
F-0.2955368713001622
sg7
F-0.09738615033193046
sg8
F0.019532353968085527
sg9
F-0.14293138375681225
sg10
F-0.4723600348145835
sg11
F-0.3759044345153203
sg12
F-0.0991481523209838
sg13
F-0.40306747181339087
sg14
F0.03252638500205686
sg15
F0.10877513379041313
sg16
F-0.049375234408273655
sg17
I00
sg18
F-0.27301390057257274
sg19
F0.26186647337290014
sg20
F-0.21289465505309357
sg21
F-0.07313261564498613
ssS'SCRIMSHAW MATTHEW'
p166
(dp167
g3
F-0.9444341859163362
sg4
F-0.025814628063763462
sg5
F-0.17740585222359698
sg6
F-0.2955368713001622
sg7
F-0.24568728193009498
sg8
F-0.5500985055879118
sg9
F0.32071903300808124
sg10
F-0.4723600348145835
sg11
F-0.3612757648126906
sg12
F-0.0991481523209838
sg13
F-0.28646856922691916
sg14
F0.03252638500205686
sg15
F-0.2605470951832374
sg16
F-0.049375234408273655
sg17
I00
sg18
F-0.4920584003709368
sg19
F-0.7932617203168942
sg20
F-0.4540064599736753
sg21
F-0.07313261564498613
ssS'GATHMANN WILLIAM D'
p168
(dp169
g3
F-0.9444341859163362
sg4
F-0.025814628063763462
sg5
F-0.17740585222359698
sg6
F-0.2955368713001622
sg7
F-0.24568728193009498
sg8
F-0.5500985055879118
sg9
F0.32071903300808124
sg10
F-0.4723600348145835
sg11
F-0.17153859861758583
sg12
F-0.0991481523209838
sg13
F-0.08382498940603872
sg14
F0.03252638500205686
sg15
F-0.2605470951832374
sg16
F-0.049375234408273655
sg17
I00
sg18
F-0.4920584003709368
sg19
F-0.7932617203168942
sg20
F-0.32156282128025176
sg21
F-0.07313261564498613
ssS'HAEDICKE MARK E'
p170
(dp171
g3
F0.9608987608636176
sg4
F0.9824588549878851
sg5
F0.323454746321695
sg6
F2.575506648646559
sg7
F0.19540783107204596
sg8
F0.3857236208255124
sg9
F-1.2266877386352213
sg10
F-0.6035072000278014
sg11
F-0.35430952589725834
sg12
F0.7641071840943755
sg13
F-0.31720664375857954
sg14
F0.9311253820997653
sg15
F-0.2140919262683184
sg16
F0.271467227509374
sg17
I00
sg18
F0.9439184842872107
sg19
F0.86871192124809
sg20
F-0.19105406880243325
sg21
F1.736301263804053
ssS'BOWEN JR RAYMOND M'
p172
(dp173
g3
F0.4744169047775279
sg4
F-0.10091608858745288
sg5
F1.2916522522507288
sg6
F-0.2955368713001622
sg7
F0.05944949644090225
sg8
F0.5484752949843689
sg9
F0.31933967301820565
sg10
F2.4088161851789605
sg11
F-0.44247980234535667
sg12
F0.4860164038871518
sg13
F-0.4412844575944641
sg14
F-0.4207608483130141
sg15
F-0.25910950538500355
sg16
F-0.32551604994638395
sg17
I01
sg18
F0.9306984185760467
sg19
F0.6447996536623286
sg20
F-0.3275616207010983
sg21
F1.1406028672776203
ssS'GILLIS JOHN'
p174
(dp175
g3
F-0.9444341859163362
sg4
F-0.025814628063763462
sg5
F-0.17740585222359698
sg6
F-0.2955368713001622
sg7
F-0.24568728193009498
sg8
F-0.5500985055879118
sg9
F0.32071903300808124
sg10
F-0.4723600348145835
sg11
F-0.4691072613543085
sg12
F-0.0991481523209838
sg13
F-0.43928637166586754
sg14
F0.03252638500205686
sg15
F-0.2605470951832374
sg16
F-0.049375234408273655
sg17
I00
sg18
F-0.4920584003709368
sg19
F-0.7932617203168942
sg20
F-0.41596189144397466
sg21
F-0.07313261564498613
ssS'FITZGERALD JAY L'
p176
(dp177
g3
F0.06982680621692207
sg4
F-0.5652915874142598
sg5
F-1.0701570293645553
sg6
F-0.2955368713001622
sg7
F-0.08396766635044807
sg8
F-0.26528307580991317
sg9
F0.32071903300808124
sg10
F2.0895217503446264
sg11
F-0.22340081287730867
sg12
F-0.4664992606021579
sg13
F-0.3058514091193829
sg14
F-0.4285303094073404
sg15
F-0.007426641961087086
sg16
F-0.4163613312983471
sg17
I00
sg18
F0.32047402896110677
sg19
F-0.27242895601440664
sg20
F0.025965217219873136
sg21
F-0.9294490606517329
ssS'MORAN MICHAEL P'
p178
(dp179
g3
F-0.9444341859163362
sg4
F-0.69825810768571
sg5
F-1.104126480567054
sg6
F-0.2955368713001622
sg7
F-0.24568728193009498
sg8
F-0.5500985055879118
sg9
F0.32071903300808124
sg10
F-0.7841281631643799
sg11
F-0.4474262687953112
sg12
F-1.1190272330569033
sg13
F-0.4291489849735611
sg14
F-0.4264113654725241
sg15
F-0.2605470951832374
sg16
F-0.520184509986305
sg17
I00
sg18
F-0.4920584003709368
sg19
F-0.7932617203168942
sg20
F-0.37293788797102906
sg21
F-0.9443415205648937
ssS'REDMOND BRIAN L'
p180
(dp181
g3
F-0.4512502432068923
sg4
F-0.19510070711306338
sg5
F2.7775389236279953
sg6
F-0.2955368713001622
sg7
F-0.2329394021047964
sg8
F-0.5500985055879118
sg9
F0.32071903300808124
sg10
F0.49016003377626544
sg11
F0.7796991891868932
sg12
F-0.09425175953737022
sg13
F1.089237338099001
sg14
F-0.2837358071948954
sg15
F-0.2605470951832374
sg16
F0.11573245947743717
sg17
I00
sg18
F-0.4920584003709368
sg19
F-0.47275428525869395
sg20
F-0.26273264853551886
sg21
F2.0937203017199124
ssS'BAZELIDES PHILIP J'
p182
(dp183
g3
F-0.5328466200149334
sg4
F-0.025814628063763462
sg5
F-0.17740585222359698
sg6
F0.6155925244600764
sg7
F-0.14737284925865526
sg8
F-0.5500985055879118
sg9
F0.32071903300808124
sg10
F-0.4723600348145835
sg11
F-0.22685617106410977
sg12
F-0.0991481523209838
sg13
F-0.11523935171808096
sg14
F0.03252638500205686
sg15
F-0.2597719850761082
sg16
F-0.049375234408273655
sg17
I00
sg18
F-0.3551555879969593
sg19
F-0.7932617203168942
sg20
F-0.4540064599736753
sg21
F-0.07313261564498613
ssS'BELDEN TIMOTHY N'
p184
(dp185
g3
F0.14541371325630215
sg4
F2.9880372024155912
sg5
F-0.1969368119119597
sg6
F2.5575234289099993
sg7
F0.3831547061022311
sg8
F3.7221321273236976
sg9
F-3.544857027742409
sg10
F0.4983271701371602
sg11
F-0.3050895125978803
sg12
F4.7865698867768165
sg13
F-0.24701253781084245
sg14
F-0.0979750555760025
sg15
F-0.07368880073026512
sg16
F0.8814284023011268
sg17
I01
sg18
F-0.4920584003709368
sg19
F-0.41458335314179273
sg20
F-0.37496106559807996
sg21
F2.451139339635772
ssS'DURAN WILLIAM D'
p186
(dp187
g3
F0.1285719195910798
sg4
F-0.5814087413865567
sg5
F2.62409594256029
sg6
F-0.2955368713001622
sg7
F-0.00642516026896708
sg8
F0.06022027250779963
sg9
F0.32071903300808124
sg10
F0.6526967935901233
sg11
F-0.22025282876213736
sg12
F-0.6022601139316687
sg13
F-0.14535882063989836
sg14
F-0.4313555679870954
sg15
F-0.2591565086294862
sg16
F-0.4812508179783208
sg17
I00
sg18
F1.1218877594833856
sg19
F-0.23064450927627242
sg20
F-0.35917295593317927
sg21
F0.6342592302301525
ssS'THORN TERENCE H'
p188
(dp189
g3
F0.18663460165252518
sg4
F-0.9027444987092279
sg5
F-1.104126480567054
sg6
F-0.2734657093532497
sg7
F-0.14150726318691745
sg8
F-0.5500985055879118
sg9
F0.32071903300808124
sg10
F-0.7841281631643799
sg11
F0.28807220243183124
sg12
F-1.1781488949907226
sg13
F0.46623667297924276
sg14
F-0.4108724432838715
sg15
F0.11781039897511769
sg16
F-0.520184509986305
sg17
I00
sg18
F-0.1999990673064514
sg19
F0.21360161896832944
sg20
F-0.2707415825339981
sg21
F-0.9443415205648937
ssS'LINDHOLM TOD A'
p190
(dp191
g3
F0.2597871641584985
sg4
F-0.025814628063763462
sg5
F-0.17740585222359698
sg6
F-0.023972155617286828
sg7
F-0.14557226509769328
sg8
F-0.38734683142905546
sg9
F0.32071903300808124
sg10
F-0.4723600348145835
sg11
F0.007485277121521376
sg12
F-0.0991481523209838
sg13
F0.0783363055405906
sg14
F0.03252638500205686
sg15
F-0.25821467003249404
sg16
F-0.049375234408273655
sg17
I00
sg18
F-0.23650648393951207
sg19
F0.46631569840491977
sg20
F-0.19573050367458006
sg21
F-0.07313261564498613
ssS'FASTOW ANDREW S'
p192
(dp193
g3
F1.2999398040069035
sg4
F0.18070239644634367
sg5
F0.18215931315820283
sg6
F-0.2955368713001622
sg7
F0.031387907218460125
sg8
F0.5077873764446548
sg9
F-1.974441604167149
sg10
F0.492442119459835
sg11
F-0.19569138433563402
sg12
F0.6940370662468861
sg13
F-0.4412844575944641
sg14
F-0.2276846950143984
sg15
F-0.01447712863348611
sg16
F0.34562664085791533
sg17
I01
sg18
F2.0430969269453896
sg19
F0.42690958309992216
sg20
F0.44617063204506435
sg21
F0.5119283095149031
ssS'CALGER CHRISTOPHER F'
p194
(dp195
g3
F0.2787933854946369
sg4
F0.2717930970219149
sg5
F1.3313184227363457
sg6
F-0.2955368713001622
sg7
F-0.058313942673287794
sg8
F0.4670994579049406
sg9
F-0.11395323270900641
sg10
F0.21366694569291397
sg11
F-0.46264520552045124
sg12
F1.1374495307505301
sg13
F-0.4412844575944641
sg14
F-0.3381220348551796
sg15
F-0.26011608429986804
sg16
F-0.19573707658643655
sg17
I01
sg18
F0.05599677931123137
sg19
F-0.011728919655541058
sg20
F-0.3907842911652602
sg21
F2.0192580021541082
ssS'LEWIS RICHARD'
p196
(dp197
g3
F-0.9444341859163362
sg4
F-0.5572330104281112
sg5
F-0.7701411200046712
sg6
F-0.2955368713001622
sg7
F-0.24568728193009498
sg8
F-0.5500985055879118
sg9
F0.32071903300808124
sg10
F-0.7841281631643799
sg11
F-0.34672789880926597
sg12
F-0.44898173114028556
sg13
F-0.26793689804177157
sg14
F-0.42146716295795283
sg15
F-0.2605470951832374
sg16
F-0.520184509986305
sg17
I00
sg18
F-0.4920584003709368
sg19
F-0.7932617203168942
sg20
F-0.4540064599736753
sg21
F-0.7954169214332857
ssS'KAMINSKI WINCENTY J'
p198
(dp199
g3
F0.4565922063111601
sg4
F1.2836481698451851
sg5
F-0.8211632378175223
sg6
F-0.2955368713001622
sg7
F-0.12146251976410403
sg8
F-0.22459515727019908
sg9
F0.32071903300808124
sg10
F-0.7157269750783499
sg11
F-0.32663737906234563
sg12
F-0.6197776433935411
sg13
F-0.26803208381435695
sg14
F9.708497474753688
sg15
F-0.25640637540041583
sg16
F1.6990359344687953
sg17
I00
sg18
F-0.019702079225752605
sg19
F1.03052573691911
sg20
F-0.3907842911652602
sg21
F-0.33375066412530036
ssS'LOCKHART EUGENE E'
p200
(dp201
g3
F-0.9444341859163362
sg4
F-0.025814628063763462
sg5
F-0.17740585222359698
sg6
F-0.2955368713001622
sg7
F-0.24568728193009498
sg8
F-0.5500985055879118
sg9
F0.32071903300808124
sg10
F-0.4723600348145835
sg11
F-0.48281044868822065
sg12
F-0.0991481523209838
sg13
F-0.4412844575944641
sg14
F0.03252638500205686
sg15
F-0.2605470951832374
sg16
F-0.049375234408273655
sg17
I00
sg18
F-0.4920584003709368
sg19
F-0.7932617203168942
sg20
F-0.4540064599736753
sg21
F-0.07313261564498613
ssS'COX DAVID'
p202
(dp203
g3
F0.656162623111604
sg4
F-0.98534491281725
sg5
F-1.104126480567054
sg6
F-0.2955368713001622
sg7
F-0.1197969251222239
sg8
F0.10090819104751372
sg9
F0.25241339125253887
sg10
F-0.08748575988946924
sg11
F-0.4035055380978626
sg12
F-1.1803385861734568
sg13
F-0.4173247514848591
sg14
F-0.41652296044338155
sg15
F-0.2601089894705122
sg16
F-0.46827292064232606
sg17
I00
sg18
F-0.4920584003709368
sg19
F-0.1853471142745144
sg20
F-0.2643394518926832
sg21
F-0.9443415205648937
ssS'OVERDYKE JR JERE C'
p204
(dp205
g3
F-0.46092141531764436
sg4
F-0.025814628063763462
sg5
F-0.17740585222359698
sg6
F-0.2955368713001622
sg7
F-0.21713636998861024
sg8
F-0.5500985055879118
sg9
F0.32071903300808124
sg10
F-0.4723600348145835
sg11
F0.686458120597192
sg12
F-0.0991481523209838
sg13
F0.6321701372904072
sg14
F0.03252638500205686
sg15
F-0.26039100893740813
sg16
F-0.049375234408273655
sg17
I00
sg18
F-0.2936975425401996
sg19
F-0.382312232136205
sg20
F0.5698809458415555
sg21
F-0.07313261564498613
ssS'PEREIRA PAULO V. FERRAZ'
p206
(dp207
g3
F-0.9444341859163362
sg4
F-0.025814628063763462
sg5
F-0.17740585222359698
sg6
F-0.2955368713001622
sg7
F-0.24249348248709368
sg8
F-0.5500985055879118
sg9
F0.15305973051720456
sg10
F-0.4723600348145835
sg11
F-0.48281044868822065
sg12
F-0.0991481523209838
sg13
F-0.4412844575944641
sg14
F0.03252638500205686
sg15
F-0.2605470951832374
sg16
F-0.049375234408273655
sg17
I00
sg18
F-0.4920584003709368
sg19
F-0.18357973036548625
sg20
F-0.4540064599736753
sg21
F-0.07313261564498613
ssS'STABLER FRANK'
p208
(dp209
g3
F0.27529465182423846
sg4
F-0.025814628063763462
sg5
F-0.17740585222359698
sg6
F-0.2955368713001622
sg7
F-0.11857458988339147
sg8
F-0.14321932019077088
sg9
F0.32071903300808124
sg10
F-0.4723600348145835
sg11
F-0.40092926015548314
sg12
F-0.0991481523209838
sg13
F-0.4412844575944641
sg14
F0.03252638500205686
sg15
F0.05523577776365477
sg16
F-0.049375234408273655
sg17
I00
sg18
F-0.4920584003709368
sg19
F-0.43293359841947987
sg20
F-0.19729215801452782
sg21
F-0.07313261564498613
ssS'SKILLING JEFFREY K'
p210
(dp211
g3
F4.714948319323351
sg4
F0.7900603294435898
sg5
F-0.33269120164579147
sg6
F-0.2955368713001622
sg7
F0.7467561195636598
sg8
F4.0069483708600675
sg9
F0.32071903300808124
sg10
F0.8123440110072905
sg11
F3.6923682115989864
sg12
F0.9776020744109449
sg13
F3.4823260825957263
sg14
F-0.36354936207297484
sg15
F-0.2409281183069089
sg16
F-0.13084758990646286
sg17
I01
sg18
F2.3117111970481234
sg19
F-0.15316327148665645
sg20
F2.9791609283909097
sg21
F0.3661949517932579
ssS'BLAKE JR. NORMAN P'
p212
(dp213
g3
F-0.9444341859163362
sg4
F-0.025814628063763462
sg5
F-0.17740585222359698
sg6
F-0.2955368713001622
sg7
F-0.2455410909098531
sg8
F-0.5500985055879118
sg9
F0.13230475078959322
sg10
F-0.4723600348145835
sg11
F-0.48281044868822065
sg12
F-0.0991481523209838
sg13
F-0.4412844575944641
sg14
F0.03252638500205686
sg15
F-0.2605470951832374
sg16
F-0.049375234408273655
sg17
I00
sg18
F-0.4920584003709368
sg19
F-0.7653545101977957
sg20
F-0.4540064599736753
sg21
F-0.07313261564498613
ssS'SHERRICK JEFFREY B'
p214
(dp215
g3
F-0.9444341859163362
sg4
F-0.7279741103221324
sg5
F0.9187460262779958
sg6
F-0.2955368713001622
sg7
F-0.24568728193009498
sg8
F-0.5500985055879118
sg9
F0.32071903300808124
sg10
F3.353927712288589
sg11
F-0.18960214556939636
sg12
F-0.6197776433935411
sg13
F-0.15053594831370776
sg14
F-0.4221734776028916
sg15
F-0.2605470951832374
sg16
F-0.2865823579383997
sg17
I00
sg18
F-0.4920584003709368
sg19
F-0.7932617203168942
sg20
F-0.2503347284078385
sg21
F-0.363535583951622
ssS'PRENTICE JAMES'
p216
(dp217
g3
F-0.9444341859163362
sg4
F-0.025814628063763462
sg5
F-0.17740585222359698
sg6
F0.4554468560853547
sg7
F-0.1811817229844612
sg8
F-0.5500985055879118
sg9
F0.32071903300808124
sg10
F-0.4723600348145835
sg11
F-0.3075960273464906
sg12
F-0.0991481523209838
sg13
F-0.2606493774571502
sg14
F0.03252638500205686
sg15
F-0.2605470951832374
sg16
F-0.049375234408273655
sg17
I00
sg18
F-0.4920584003709368
sg19
F-0.7932617203168942
sg20
F-0.3492562251294249
sg21
F-0.07313261564498613
ssS'GRAY RODNEY'
p218
(dp219
g3
F-0.9107455058149012
sg4
F-0.025814628063763462
sg5
F-0.17740585222359698
sg6
F-0.17100234273379253
sg7
F-0.11462308889763533
sg8
F-0.5500985055879118
sg9
F0.32071903300808124
sg10
F-0.4723600348145835
sg11
F-0.48281044868822065
sg12
F-0.0991481523209838
sg13
F-0.4412844575944641
sg14
F0.03252638500205686
sg15
F0.34325214917266755
sg16
F-0.049375234408273655
sg17
I00
sg18
F0.0418625678875756
sg19
F-0.7932617203168942
sg20
F-0.4540064599736753
sg21
F-0.07313261564498613
ssS'PICKERING MARK R'
p220
(dp221
g3
F2.3915192453162746
sg4
F-0.5844307077563624
sg5
F-0.8562781016374639
sg6
F-0.2955368713001622
sg7
F-0.08718718352570458
sg8
F-0.30597099434962727
sg9
F0.32071903300808124
sg10
F-0.7841281631643799
sg11
F-0.4782025577383018
sg12
F-0.4610250326453228
sg13
F-0.4354147362263396
sg14
F-0.39250826251546383
sg15
F-0.2605470951832374
sg16
F-0.520184509986305
sg17
I00
sg18
F-0.4920584003709368
sg19
F-0.10260736386667892
sg20
F-0.4540064599736753
sg21
F-0.8400943011727681
ssS'NOLES JAMES L'
p222
(dp223
g3
F-0.9444341859163362
sg4
F-0.025814628063763462
sg5
F-0.17740585222359698
sg6
F0.7349665582700174
sg7
F-0.15717244825821566
sg8
F-0.5500985055879118
sg9
F0.32071903300808124
sg10
F-0.4723600348145835
sg11
F-0.4238149478655999
sg12
F-0.0991481523209838
sg13
F-0.4412844575944641
sg14
F0.03252638500205686
sg15
F-0.2605470951832374
sg16
F-0.049375234408273655
sg17
I00
sg18
F-0.4920584003709368
sg19
F-0.7932617203168942
sg20
F-0.22160891703164562
sg21
F-0.07313261564498613
ssS'KEAN STEVEN J'
p224
(dp225
g3
F1.1147666507962946
sg4
F5.386974838979671
sg5
F-0.7551099457093279
sg6
F-0.2955368713001622
sg7
F-0.045943713458528074
sg8
F0.26365986520637014
sg9
F0.32071903300808124
sg10
F-0.4550550705388479
sg11
F0.5018173477157155
sg12
F2.72607048382408
sg13
F-0.029142699383009913
sg14
F4.334149341414693
sg15
F-0.2594553783161024
sg16
F4.502261759043659
sg17
I00
sg18
F-0.05396940077420868
sg19
F0.12213404678751555
sg20
F1.6186314137822249
sg21
F1.1406028672776203
ssS'FOWLER PEGGY'
p226
(dp227
g3
F-0.9444341859163362
sg4
F-0.7763255722390234
sg5
F-1.104126480567054
sg6
F-0.2955368713001622
sg7
F-0.24568728193009498
sg8
F-0.5500985055879118
sg9
F0.32071903300808124
sg10
F-0.7841281631643799
sg11
F-0.18123696261010205
sg12
F-1.247124167246845
sg13
F-0.17130377177087755
sg14
F-0.4144040165085653
sg15
F-0.2605470951832374
sg16
F-0.520184509986305
sg17
I00
sg18
F-0.4920584003709368
sg19
F-0.7932617203168942
sg20
F-0.17299396026004352
sg21
F-0.9443415205648937
ssS'WASAFF GEORGE'
p228
(dp229
g3
F0.3796659005013073
sg4
F-0.8352539164502343
sg5
F0.6446208673375832
sg6
F0.8106813160449738
sg7
F-0.12745486568060202
sg8
F-0.2856270350797702
sg9
F-0.6452055361325669
sg10
F0.5569084631398231
sg11
F-0.15376706503418985
sg12
F-0.8891096588698286
sg13
F-0.10125315786575313
sg14
F-0.4186419043781978
sg15
F-0.25928332870422244
sg16
F-0.4293392286343418
sg17
I00
sg18
F-0.1999990673064514
sg19
F-0.7932617203168942
sg20
F-0.25928025368568897
sg21
F-0.6167074024753558
ssS'WHITE JR THOMAS E'
p230
(dp231
g3
F0.672739592685326
sg4
F-0.025814628063763462
sg5
F-0.17740585222359698
sg6
F-0.2955368713001622
sg7
F-0.02458805149689203
sg8
F-0.18390723873048498
sg9
F0.32071903300808124
sg10
F-0.4723600348145835
sg11
F1.9403601644153963
sg12
F-0.0991481523209838
sg13
F-0.17691484057923576
sg14
F0.03252638500205686
sg15
F0.7020997494560407
sg16
F-0.049375234408273655
sg17
I00
sg18
F-0.4920584003709368
sg19
F0.9818244914258905
sg20
F6.492457789200035
sg21
F-0.07313261564498613
ssS'CHRISTODOULOU DIOMEDES'
p232
(dp233
g3
F-0.9444341859163362
sg4
F-0.025814628063763462
sg5
F-0.17740585222359698
sg6
F-0.2955368713001622
sg7
F-0.24568728193009498
sg8
F-0.5500985055879118
sg9
F0.32071903300808124
sg10
F-0.4723600348145835
sg11
F0.48969567278367154
sg12
F-0.0991481523209838
sg13
F0.6037523943114493
sg14
F0.03252638500205686
sg15
F-0.2605470951832374
sg16
F-0.049375234408273655
sg17
I00
sg18
F-0.4920584003709368
sg19
F-0.7932617203168942
sg20
F0.022932708230157688
sg21
F-0.07313261564498613
ssS'ALLEN PHILLIP K'
p234
(dp235
g3
F0.08407637944803549
sg4
F0.4249060597587363
sg5
F-0.5891767571692849
sg6
F3.523225256326025
sg7
F0.266889067714585
sg8
F2.8473426924782155
sg9
F-4.7811825199403435
sg10
F-0.6139347742094047
sg11
F-0.2060712195260009
sg12
F0.28237512389288555
sg13
F-0.08876262396895339
sg14
F1.1105293019142093
sg15
F-0.2604122934254758
sg16
F0.323378816853353
sg17
I00
sg18
F-0.04695267529733442
sg19
F-0.4906681394477322
sg20
F-0.3907842911652602
sg21
F-0.24439590464633548
ssS'SHARP VICTORIA T'
p236
(dp237
g3
F0.3193165642651764
sg4
F0.542762748181158
sg5
F-0.8607942893001751
sg6
F-0.046069931771298
sg7
F-0.06549044728384823
sg8
F-0.061843483111342676
sg9
F0.32071903300808124
sg10
F-0.5305708178547617
sg11
F-0.4037450690636251
sg12
F1.4538599066555997
sg13
F-0.38399505575743154
sg14
F-0.34377255201468965
sg15
F-0.25841775952280593
sg16
F-0.44231712597033657
sg17
I00
sg18
F0.12441751926824837
sg19
F1.7451597836905837
sg20
F-0.34712218158231994
sg21
F-0.5869224826490342
ssS'JAEDICKE ROBERT'
p238
(dp239
g3
F-0.9444341859163362
sg4
F-0.025814628063763462
sg5
F-0.17740585222359698
sg6
F-0.2955368713001622
sg7
F-0.2361145704795417
sg8
F-0.5500985055879118
sg9
F0.2793216743683586
sg10
F-0.4723600348145835
sg11
F-0.41372728605097275
sg12
F-0.0991481523209838
sg13
F-0.3532834783359127
sg14
F0.03252638500205686
sg15
F-0.2605470951832374
sg16
F-0.049375234408273655
sg17
I00
sg18
F-0.4920584003709368
sg19
F-0.7932617203168942
sg20
F-0.4318869531277657
sg21
F-0.07313261564498613
ssS'WINOKUR JR. HERBERT S'
p240
(dp241
g3
F-0.9444341859163362
sg4
F-0.025814628063763462
sg5
F-0.17740585222359698
sg6
F-0.2955368713001622
sg7
F-0.23597260859749292
sg8
F-0.5500985055879118
sg9
F0.2793216743683586
sg10
F-0.4723600348145835
sg11
F-0.48281044868822065
sg12
F-0.0991481523209838
sg13
F-0.4412844575944641
sg14
F0.03252638500205686
sg15
F-0.2605470951832374
sg16
F-0.049375234408273655
sg17
I00
sg18
F-0.4920584003709368
sg19
F-0.7624306899038479
sg20
F-0.4540064599736753
sg21
F-0.07313261564498613
ssS'BROWN MICHAEL'
p242
(dp243
g3
F-0.9444341859163362
sg4
F-0.28827800351540533
sg5
F-0.8259701668173871
sg6
F-0.2955368713001622
sg7
F-0.2400536126527831
sg8
F-0.5500985055879118
sg9
F0.32071903300808124
sg10
F-0.643950118602965
sg11
F-0.48281044868822065
sg12
F-0.4248951281302111
sg13
F-0.4412844575944641
sg14
F-0.4108724432838715
sg15
F-0.2605470951832374
sg16
F-0.5072066126503103
sg17
I00
sg18
F-0.4920584003709368
sg19
F0.28218047854950745
sg20
F-0.4540064599736753
sg21
F-0.7507395416938032
ssS'BADUM JAMES P'
p244
(dp245
g3
F-0.9444341859163362
sg4
F-0.025814628063763462
sg5
F-0.17740585222359698
sg6
F-0.05736633197432105
sg7
F-0.22483122978040362
sg8
F-0.5500985055879118
sg9
F0.32071903300808124
sg10
F-0.4723600348145835
sg11
F-0.44155784013779253
sg12
F-0.0991481523209838
sg13
F-0.3887351849378296
sg14
F0.03252638500205686
sg15
F-0.2605470951832374
sg16
F-0.049375234408273655
sg17
I00
sg18
F-0.4920584003709368
sg19
F-0.7171987535653872
sg20
F-0.4540064599736753
sg21
F-0.07313261564498613
ssS'HUGHES JAMES A'
p246
(dp247
g3
F-0.9444341859163362
sg4
F-0.6745860377888987
sg5
F0.4436332153910266
sg6
F-0.2955368713001622
sg7
F-0.24568728193009498
sg8
F-0.5500985055879118
sg9
F0.32071903300808124
sg10
F0.06106298786768083
sg11
F-0.30385921627473544
sg12
F-0.6132085698453389
sg13
F-0.287404324862764
sg14
F-0.4158166457984428
sg15
F-0.2605470951832374
sg16
F-0.4552950233063313
sg17
I00
sg18
F-0.4920584003709368
sg19
F-0.7932617203168942
sg20
F-0.2716907152070406
sg21
F-0.4231054236042653
ssS'REYNOLDS LAWRENCE'
p248
(dp249
g3
F-0.5553515750214704
sg4
F-0.025814628063763462
sg5
F-0.17740585222359698
sg6
F-0.22718493391904795
sg7
F-0.20059838223508608
sg8
F-0.4687226685084837
sg9
F-0.010459836109699834
sg10
F-0.4723600348145835
sg11
F0.19272303733316484
sg12
F-0.0991481523209838
sg13
F0.4067600366119878
sg14
F0.03252638500205686
sg15
F-0.08135653755662511
sg16
F-0.049375234408273655
sg17
I00
sg18
F-0.2638870464143076
sg19
F-0.6097810870944552
sg20
F-0.3529313551308567
sg21
F-0.07313261564498613
ssS'DIMICHELE RICHARD G'
p250
(dp251
g3
F0.3938849171064783
sg4
F-0.025814628063763462
sg5
F-0.17740585222359698
sg6
F-0.2955368713001622
sg7
F0.02499482188290974
sg8
F0.26365986520637014
sg9
F0.32071903300808124
sg10
F-0.4723600348145835
sg11
F0.8480956003845602
sg12
F-0.0991481523209838
sg13
F1.2283911923097277
sg14
F0.03252638500205686
sg15
F0.07174721938211075
sg16
F-0.049375234408273655
sg17
I00
sg18
F0.5226462610883356
sg19
F-0.011859836982135734
sg20
F-0.3907842911652602
sg21
F-0.07313261564498613
ssS'BHATNAGAR SANJAY'
p252
(dp253
g3
F-0.9444341859163362
sg4
F-0.7733036058692178
sg5
F-1.104126480567054
sg6
F-0.2955368713001622
sg7
F-0.2299292844206135
sg8
F-0.5500985055879118
sg9
F0.32071903300808124
sg10
F-0.5859454105085864
sg11
F1.990309171088197
sg12
F-0.7511591143575838
sg13
F2.709077223248977
sg14
F-0.41934821902313657
sg15
F-0.2605470951832374
sg16
F-0.5072066126503103
sg17
I00
sg18
F-0.4920584003709368
sg19
F2.2148693319578503
sg20
F0.8525509161427836
sg21
F-0.9443415205648937
ssS'CARTER REBECCA C'
p254
(dp255
g3
F0.38889909430688574
sg4
F-0.879576089874051
sg5
F1.85121577405034
sg6
F-0.2955368713001622
sg7
F-0.19110202387407274
sg8
F-0.30597099434962727
sg9
F0.05612036373773887
sg10
F1.897945089444026
sg11
F-0.48281044868822065
sg12
F-1.0434828872525788
sg13
F-0.4412844575944641
sg14
F-0.42923662405227914
sg15
F-0.2600681942017159
sg16
F-0.4293392286343418
sg17
I00
sg18
F-0.38253615047175477
sg19
F-0.7932617203168942
sg20
F-0.2998471473105574
sg21
F-0.5124601830832302
ssS'BUCHANAN HAROLD G'
p256
(dp257
g3
F0.318659596807416
sg4
F-0.4887351060458491
sg5
F-1.104126480567054
sg6
F-0.2955368713001622
sg7
F-0.12514118418589038
sg8
F-0.14321932019077088
sg9
F0.32071903300808124
sg10
F-0.7841281631643799
sg11
F-0.32048221727814263
sg12
F-1.2328911745590738
sg13
F-0.2730351458569288
sg14
F-0.35154201310901595
sg15
F-0.25946956797481413
sg16
F-0.520184509986305
sg17
I00
sg18
F-0.04695267529733442
sg19
F-0.7801699876574265
sg20
F-0.35917295593317927
sg21
F-0.9443415205648937
ssS'YEAP SOON'
p258
(dp259
g3
F-0.9444341859163362
sg4
F-0.025814628063763462
sg5
F-0.17740585222359698
sg6
F-0.2955368713001622
sg7
F-0.2393896379564695
sg8
F-0.5500985055879118
sg9
F0.32071903300808124
sg10
F-0.4723600348145835
sg11
F-0.45196775670528927
sg12
F-0.0991481523209838
sg13
F-0.40199576562012745
sg14
F0.03252638500205686
sg15
F-0.2605470951832374
sg16
F-0.049375234408273655
sg17
I00
sg18
F-0.4920584003709368
sg19
F0.4089302702475866
sg20
F-0.4540064599736753
sg21
F-0.07313261564498613
ssS'MURRAY JULIA H'
p260
(dp261
g3
F0.22325671784442536
sg4
F0.06730670599839692
sg5
F-0.9445692407947331
sg6
F-0.2955368713001622
sg7
F-0.1528526693465648
sg8
F-0.22459515727019908
sg9
F0.32071903300808124
sg10
F-0.5286926152969127
sg11
F-0.3872123121916074
sg12
F-0.8256086145705414
sg13
F-0.3596574600924233
sg14
F-0.40804718470411644
sg15
F-0.2602544334723076
sg16
F-0.49422871531431556
sg17
I00
sg18
F-0.3095213172056334
sg19
F0.4631082239033502
sg20
F-0.35518880599168706
sg21
F-0.7805244615201248
ssS'GARLAND C KEVIN'
p262
(dp263
g3
F0.23681367422084562
sg4
F-0.9314531792223819
sg5
F0.4171848268749966
sg6
F-0.2955368713001622
sg7
F-0.06663825824965666
sg8
F0.14159610958722782
sg9
F0.32071903300808124
sg10
F2.7426240034148552
sg11
F-0.3394194042253194
sg12
F-1.0631901078971853
sg13
F-0.3116023011397188
sg14
F-0.4087534993490552
sg15
F-0.20661397612722804
sg16
F-0.16978128191444708
sg17
I00
sg18
F0.05599677931123137
sg19
F0.26291381198565755
sg20
F-0.3236226197768227
sg21
F-0.7954169214332857
ssS'DODSON KEITH'
p264
(dp265
g3
F0.18108348127299922
sg4
F-0.9480739942563132
sg5
F0.7024306970203811
sg6
F-0.2955368713001622
sg7
F-0.2091176953724656
sg8
F-0.49313541963231217
sg9
F0.32071903300808124
sg10
F0.4474360854823371
sg11
F-0.48281044868822065
sg12
F-1.1332602257446747
sg13
F-0.4412844575944641
sg14
F-0.4299429386972179
sg15
F-0.2598606704430566
sg16
F-0.4812508179783208
sg17
I00
sg18
F-0.4920584003709368
sg19
F-0.17873578928148323
sg20
F-0.4540064599736753
sg21
F-0.7954169214332857
ssS'YEAGER F SCOTT'
p266
(dp267
g3
F-0.13772398272546413
sg4
F0.18070239644634367
sg5
F0.18215931315820283
sg6
F-0.2955368713001622
sg7
F-0.20450462001207304
sg8
F-0.5500985055879118
sg9
F0.32071903300808124
sg10
F0.492442119459835
sg11
F1.4188378890496673
sg12
F0.6940370662468861
sg13
F1.2521972151805116
sg14
F-0.2276846950143984
sg15
F-0.1293370947830568
sg16
F0.34562664085791533
sg17
I01
sg18
F-0.4920584003709368
sg19
F0.38383778265027363
sg20
F1.3400178318500355
sg21
F0.5119283095149031
ssS'HIRKO JOSEPH'
p268
(dp269
g3
F-0.9444341859163362
sg4
F0.18070239644634367
sg5
F0.18215931315820283
sg6
F-0.2818851137689084
sg7
F-0.23527525799976365
sg8
F-0.5500985055879118
sg9
F0.32071903300808124
sg10
F0.492442119459835
sg11
F4.43998515761167
sg12
F0.6940370662468861
sg13
F5.8295754380193525
sg14
F-0.2276846950143984
sg15
F-0.2580142411031906
sg16
F0.34562664085791533
sg17
I01
sg18
F-0.4920584003709368
sg19
F0.908183495216385
sg20
F-0.4540064599736753
sg21
F0.5119283095149031
ssS'DIETRICH JANET R'
p270
(dp271
g3
F0.3292678387804
sg4
F0.2586979094194236
sg5
F2.6663241140244516
sg6
F-0.2955368713001622
sg7
F-0.08446979078510215
sg8
F-0.061843483111342676
sg9
F0.32071903300808124
sg10
F0.49304957617295625
sg11
F-0.1843828666300463
sg12
F0.8243236916195618
sg13
F-0.12535350248303254
sg14
F-0.39533352109521885
sg15
F-0.26012761339757134
sg16
F-0.3384939472823787
sg17
I00
sg18
F0.32047402896110677
sg19
F-0.7174387686641441
sg20
F-0.2959507871247642
sg21
F3.5978587529491546
ssS'DERRICK JR. JAMES V'
p272
(dp273
g3
F1.563118930477328
sg4
F0.061766434320419825
sg5
F-0.17111134767641362
sg6
F-0.2955368713001622
sg7
F-0.18270958488248562
sg8
F0.10090819104751372
sg9
F-1.8054493067280732
sg10
F-0.6576749216458319
sg11
F0.930360326475703
sg12
F0.2758060503446834
sg13
F1.3588707079558093
sg14
F0.20220866852296887
sg15
F-0.2539116560281569
sg16
F-0.26062656326641026
sg17
I00
sg18
F0.21472518564511792
sg19
F0.3222411804874784
sg20
F0.44264298883320674
sg21
F0.008775913877398352
ssS'FREVERT MARK A'
p274
(dp275
g3
F4.458649526460944
sg4
F0.612771635748323
sg5
F1.2453356051674205
sg6
F8.256925272748267
sg7
F1.7262947059148432
sg8
F1.0774182360006523
sg9
F-5.254695443427564
sg10
F0.8579575016979094
sg11
F1.8568462611367398
sg12
F2.0034723935218453
sg13
F1.685316124019254
sg14
F-0.4249987361826466
sg15
F6.326665844204323
sg16
F-0.44231712597033657
sg17
I00
sg18
F1.8692573707187465
sg19
F1.1047558610982917
sg20
F1.6472624122222628
sg21
F2.6596337784200235
ssS'PAI LOU L'
p276
(dp277
g3
F0.3892555882762131
sg4
F-0.025814628063763462
sg5
F-0.17740585222359698
sg6
F-0.2955368713001622
sg7
F0.11131861906767675
sg8
F0.26365986520637014
sg9
F0.32071903300808124
sg10
F-0.4723600348145835
sg11
F3.3282328214277856
sg12
F-0.0991481523209838
sg13
F2.6903003518830575
sg14
F0.03252638500205686
sg15
F1.3619135584302342
sg16
F-0.049375234408273655
sg17
I00
sg18
F-0.4920584003709368
sg19
F-0.09401045942029516
sg20
F3.786872331494291
sg21
F-0.07313261564498613
ssS'BAY FRANKLIN R'
p278
(dp279
g3
F0.2761553301216145
sg4
F-0.025814628063763462
sg5
F-0.17740585222359698
sg6
F0.051053294193814554
sg7
F-0.15108077474469642
sg8
F-0.22459515727019908
sg9
F-0.013177158730811229
sg10
F-0.4723600348145835
sg11
F-0.4727277471006734
sg12
F-0.0991481523209838
sg13
F-0.4412844575944641
sg14
F0.03252638500205686
sg15
F-0.260485902280043
sg16
F-0.049375234408273655
sg17
I00
sg18
F-0.4920584003709368
sg19
F2.0245591781980554
sg20
F-0.380867058705759
sg21
F-0.07313261564498613
ssS'HAYSLETT RODERICK J'
p280
(dp281
g3
F-0.9444341859163362
sg4
F0.29747981116526323
sg5
F-0.684028624246231
sg6
F-0.2955368713001622
sg7
F-0.24568728193009498
sg8
F-0.5500985055879118
sg9
F0.32071903300808124
sg10
F-0.5782870760515764
sg11
F-0.42734182932674697
sg12
F-0.6329157904899454
sg13
F-0.4412844575944641
sg14
F0.3095684945536598
sg15
F-0.2605470951832374
sg16
F-0.027024411218504952
sg17
I00
sg18
F-0.4920584003709368
sg19
F-0.7932617203168942
sg20
F-0.2801009738030008
sg21
F-0.4231054236042653
ssS'FUGH JOHN L'
p282
(dp283
g3
F-0.9444341859163362
sg4
F-0.025814628063763462
sg5
F-0.17740585222359698
sg6
F-0.2282149037337658
sg7
F-0.23990467840776733
sg8
F-0.5500985055879118
sg9
F0.32071903300808124
sg10
F-0.4723600348145835
sg11
F-0.45458867669138797
sg12
F-0.0991481523209838
sg13
F-0.405334401497962
sg14
F0.03252638500205686
sg15
F-0.2605470951832374
sg16
F-0.049375234408273655
sg17
I00
sg18
F-0.4920584003709368
sg19
F-0.7932617203168942
sg20
F-0.4540064599736753
sg21
F-0.07313261564498613
ssS'FALLON JAMES B'
p284
(dp285
g3
F0.6067627445048133
sg4
F-0.15279317793578379
sg5
F-0.3432107736310814
sg6
F-0.2955368713001622
sg7
F0.17452217495500305
sg8
F1.4842974213977933
sg9
F0.32071903300808124
sg10
F2.0512064181645067
sg11
F-0.10960952349550641
sg12
F0.498059705392189
sg13
F-0.2496375861301728
sg14
F-0.3868577453559538
sg15
F0.09550780289493019
sg16
F-0.04000230855449969
sg17
I00
sg18
F0.054599275402517806
sg19
F1.299757219061062
sg20
F0.24436957475923568
sg21
F-0.31885820421213956
ssS'KOENIG MARK E'
p286
(dp287
g3
F0.6340498114713271
sg4
F0.158973019215836
sg5
F-0.3942880074189667
sg6
F-0.2955368713001622
sg7
F-0.06424342302205079
sg8
F0.019532353968085527
sg9
F0.32071903300808124
sg10
F0.6291422861023446
sg11
F-0.17558758398072552
sg12
F1.228321714833993
sg13
F-0.30436838624715307
sg14
F-0.39674615038509636
sg15
F-0.12711286577999054
sg16
F-0.32551604994638395
sg17
I01
sg18
F-0.05396940077420868
sg19
F1.9781926250291078
sg20
F0.17221943862410996
sg21
F-0.1550411451673706
ssS'SAVAGE FRANK'
p288
(dp289
g3
F-0.9444341859163362
sg4
F-0.025814628063763462
sg5
F-0.17740585222359698
sg6
F-0.2955368713001622
sg7
F-0.24525865305917469
sg8
F-0.5500985055879118
sg9
F0.11988554319767643
sg10
F-0.4723600348145835
sg11
F-0.48281044868822065
sg12
F-0.0991481523209838
sg13
F-0.4412844575944641
sg14
F0.03252638500205686
sg15
F-0.2605470951832374
sg16
F-0.049375234408273655
sg17
I00
sg18
F-0.4920584003709368
sg19
F-0.7932617203168942
sg20
F-0.4540064599736753
sg21
F-0.07313261564498613
ssS'IZZO LAWRENCE L'
p290
(dp291
g3
F-0.5101532324817522
sg4
F-0.7869024545333433
sg5
F0.6907754894230428
sg6
F-0.2955368713001622
sg7
F-0.019417415701206326
sg8
F-0.5500985055879118
sg9
F0.32071903300808124
sg10
F0.7283191597350971
sg11
F0.4484289835886295
sg12
F-0.7796250997331264
sg13
F2.9395939285192257e-05
sg14
F-0.4264113654725241
sg15
F1.1173831698507075
sg16
F-0.4552950233063313
sg17
I00
sg18
F-0.03571569245767834
sg19
F-0.1802849776461869
sg20
F1.3794489768640328
sg21
F-0.527352642996391
ssS'TILNEY ELIZABETH A'
p292
(dp293
g3
F0.3152016053049407
sg4
F-0.8050342527521774
sg5
F-0.4129219952292528
sg6
F-0.2955368713001622
sg7
F-0.20003624975850312
sg8
F-0.30597099434962727
sg9
F-0.6314202157055393
sg10
F2.54325594721447
sg11
F-0.29591517259525874
sg12
F-0.8431261440324137
sg13
F-0.3207735624314797
sg14
F-0.4264113654725241
sg15
F-0.12569656046982436
sg16
F-0.3774276392903629
sg17
I00
sg18
F-0.09047681740726936
sg19
F-0.7932617203168942
sg20
F-0.16465543843588304
sg21
F-0.7954169214332857
ssS'MARTIN AMANDA K'
p294
(dp295
g3
F0.8354230692023693
sg4
F-0.27014620529657124
sg5
F-0.937002137200227
sg6
F-0.18185428567826808
sg7
F0.7152433249735998
sg8
F-0.5500985055879118
sg9
F0.32071903300808124
sg10
F-0.7841281631643799
sg11
F-0.15154632336831295
sg12
F-0.7358312760784455
sg13
F-0.019306564450620397
sg14
F-0.2773789753904466
sg15
F2.239009176989054
sg16
F-0.520184509986305
sg17
I00
sg18
F7.021801711465701
sg19
F-0.6141013588720795
sg20
F-0.4540064599736753
sg21
F-0.8252018412596073
ssS'BUY RICHARD B'
p296
(dp297
g3
F0.7389608938733774
sg4
F0.7376795790336247
sg5
F0.3037881906745189
sg6
F0.5688712838983919
sg7
F0.023571888332486603
sg8
F0.18228402812694194
sg9
F-0.8298990237565166
sg10
F-0.39660842174151295
sg11
F0.06832998260100061
sg12
F1.2962021414987486
sg13
F0.07700166648515343
sg14
F0.3039179773941498
sg15
F0.09470165290936909
sg16
F0.40124620086932145
sg17
I00
sg18
F0.6321685109875176
sg19
F-0.7932617203168942
sg20
F-0.0016850442350708169
sg21
F1.3788822258881934
ssS'GRAMM WENDY L'
p298
(dp299
g3
F-0.9444341859163362
sg4
F-0.025814628063763462
sg5
F-0.17740585222359698
sg6
F-0.2955368713001622
sg7
F-0.23205208319147527
sg8
F-0.5500985055879118
sg9
F0.32071903300808124
sg10
F-0.4723600348145835
sg11
F-0.48281044868822065
sg12
F-0.0991481523209838
sg13
F-0.4412844575944641
sg14
F0.03252638500205686
sg15
F-0.2605470951832374
sg16
F-0.049375234408273655
sg17
I00
sg18
F-0.4920584003709368
sg19
F-0.7932617203168942
sg20
F-0.4540064599736753
sg21
F-0.07313261564498613
ssS'CAUSEY RICHARD A'
p300
(dp301
g3
F1.170028308813025
sg4
F-0.08379161249188732
sg5
F-0.12942586382220533
sg6
F-0.2955368713001622
sg7
F-0.0320863135132233
sg8
F0.26365986520637014
sg9
F-0.06841613820531152
sg10
F0.623373835289011
sg11
F-0.08246204067978892
sg12
F0.4772576391562156
sg13
F-0.4412844575944641
sg14
F-0.4052219261243614
sg15
F0.012510715382586175
sg16
F-0.36444974195436813
sg17
I01
sg18
F0.01904543249191268
sg19
F-0.12396870765604362
sg20
F0.8011678229600566
sg21
F-0.08057884560156653
ssS'TAYLOR MITCHELL S'
p302
(dp303
g3
F0.4062399795291664
sg4
F-0.7682669952528749
sg5
F-1.104126480567054
sg6
F0.007131868218908342
sg7
F-0.12079477313372634
sg8
F-0.061843483111342676
sg9
F0.32071903300808124
sg10
F-0.7841281631643799
sg11
F0.11642466438253785
sg12
F-0.9296189457504085
sg13
F0.20713040115774586
sg14
F-0.41934821902313657
sg15
F-0.2605470951832374
sg16
F-0.520184509986305
sg17
I00
sg18
F-0.4920584003709368
sg19
F-0.7932617203168942
sg20
F-0.1711739532104674
sg21
F-0.9443415205648937
ssS'DONAHUE JR JEFFREY M'
p304
(dp305
g3
F0.4744169047775279
sg4
F-0.6010515227902937
sg5
F5.806320212151219
sg6
F-0.2955368713001622
sg7
F-0.14558700993085294
sg8
F0.10090819104751372
sg9
F-0.17604927066859036
sg10
F2.0895217503446264
sg11
F-0.30984445027962
sg12
F-0.4128518266251738
sg13
F-0.2851716375974527
sg14
F-0.42429242153770785
sg15
F-0.25975690856372696
sg16
F-0.3774276392903629
sg17
I00
sg18
F-0.4920584003709368
sg19
F1.3072631457858235
sg20
F-0.2959507871247642
sg21
F1.8554409431093395
ssS'GLISAN JR BEN F'
p306
(dp307
g3
F0.45595051716637086
sg4
F-0.5970222342972195
sg5
F0.7897579741042181
sg6
F-0.2955368713001622
sg7
F-0.1002639074207732
sg8
F-0.061843483111342676
sg9
F0.32071903300808124
sg10
F1.371109271967375
sg11
F-0.35823738571525293
sg12
F-0.3011775763057375
sg13
F-0.3628676868980334
sg14
F-0.4285303094073404
sg15
F-0.08290321035620549
sg16
F-0.44231712597033657
sg17
I01
sg18
F-0.38834375030974205
sg19
F1.9555221079737963
sg20
F-0.2564453970602329
sg21
F-0.16993360508053143
ss.