(lp0
S'poi'
p1
aS'salary'
p2
aS'to_messages'
p3
aS'from_messages'
p4
aS'from_poi_to_this_person'
p5
aS'from_this_person_to_poi'
p6
aS'deferral_payments'
p7
aS'other'
p8
aS'total_payments'
p9
aS'bonus'
p10
aS'total_stock_value'
p11
aS'shared_receipt_with_poi'
p12
aS'long_term_incentive'
p13
aS'exercised_stock_options'
p14
aS'deferred_income'
p15
aS'expenses'
p16
aS'restricted_stock'
p17
aS'fraction_messages_from_poi'
p18
aS'fraction_messages_to_poi'
p19
a.