(lp0
S'poi'
p1
aS'bonus'
p2
aS'salary'
p3
aS'fraction_messages_to_poi'
p4
aS'total_stock_value'
p5
aS'exercised_stock_options'
p6
aS'shared_receipt_with_poi'
p7
aS'deferred_income'
p8
aS'from_poi_to_this_person'
p9
a.